

Microchip MPLAB XC8 Assembler V2.32 build 20210201212658 
                                                                                               Sat Jul 20 05:23:05 2024

Microchip MPLAB XC8 C Compiler v2.32 (Free license) build 20210201212658 Og1 
     1                           	processor	16F1769
     2                           	pagewidth 120
     3                           	opt	flic
     4                           	psect	nvCOMMON,global,class=COMMON,space=1,delta=1,noexec
     5                           	psect	cinit,global,class=CODE,merge=1,delta=2
     6                           	psect	bssCOMMON,global,class=COMMON,space=1,delta=1,noexec
     7                           	psect	cstackCOMMON,global,class=COMMON,space=1,delta=1,noexec
     8                           	psect	maintext,global,class=CODE,merge=1,split=1,delta=2
     9                           	psect	text1,local,class=CODE,merge=1,delta=2
    10                           	psect	text2,local,class=CODE,merge=1,delta=2
    11                           	psect	text3,local,class=CODE,merge=1,delta=2
    12                           	psect	text4,local,class=CODE,merge=1,delta=2
    13                           	psect	text5,local,class=CODE,merge=1,delta=2
    14                           	psect	text6,local,class=CODE,merge=1,delta=2
    15                           	psect	text7,local,class=CODE,merge=1,delta=2
    16                           	psect	text8,local,class=CODE,merge=1,delta=2
    17                           	psect	text9,local,class=CODE,merge=1,delta=2
    18                           	psect	text10,local,class=CODE,merge=1,delta=2
    19                           	psect	text11,local,class=CODE,merge=1,delta=2
    20                           	psect	config,global,abs,ovrld,class=CONFIG,space=4,delta=2,noexec
    21                           	dabs	1,0x7E,2
    22  0000                     
    23                           ; Version 2.20
    24                           ; Generated 12/02/2020 GMT
    25                           ; 
    26                           ; Copyright © 2020, Microchip Technology Inc. and its subsidiaries ("Microchip")
    27                           ; All rights reserved.
    28                           ; 
    29                           ; This software is developed by Microchip Technology Inc. and its subsidiaries ("Microch
      +                          ip").
    30                           ; 
    31                           ; Redistribution and use in source and binary forms, with or without modification, are
    32                           ; permitted provided that the following conditions are met:
    33                           ; 
    34                           ;     1. Redistributions of source code must retain the above copyright notice, this lis
      +                          t of
    35                           ;        conditions and the following disclaimer.
    36                           ; 
    37                           ;     2. Redistributions in binary form must reproduce the above copyright notice, this 
      +                          list
    38                           ;        of conditions and the following disclaimer in the documentation and/or other
    39                           ;        materials provided with the distribution.
    40                           ; 
    41                           ;     3. Microchip's name may not be used to endorse or promote products derived from th
      +                          is
    42                           ;        software without specific prior written permission.
    43                           ; 
    44                           ; THIS SOFTWARE IS PROVIDED BY MICROCHIP "AS IS" AND ANY EXPRESS OR IMPLIED WARRANTIES,
    45                           ; INCLUDING, BUT NOT LIMITED TO, THE IMPLIED WARRANTIES OF MERCHANTABILITY AND FITNESS F
      +                          OR
    46                           ; PURPOSE ARE DISCLAIMED.  IN NO EVENT SHALL MICROCHIP BE LIABLE FOR ANY DIRECT, INDIREC
      +                          T,
    47                           ; INCIDENTAL, SPECIAL, EXEMPLARY, OR CONSEQUENTIAL DAMAGES (INCLUDING BUT NOT LIMITED TO
    48                           ; PROCUREMENT OF SUBSTITUTE GOODS OR SERVICES; LOSS OF USE, DATA OR PROFITS; OR BUSINESS
    49                           ; INTERRUPTION) HOWSOEVER CAUSED AND ON ANY THEORY OF LIABILITY, WHETHER IN CONTRACT, ST
      +                          RICT
    50                           ; LIABILITY, OR TORT (INCLUDING NEGLIGENCE OR OTHERWISE) ARISING IN ANY WAY OUT OF THE U
      +                          SE OF
    51                           ; THIS SOFTWARE, EVEN IF ADVISED OF THE POSSIBILITY OF SUCH DAMAGE.
    52                           ; 
    53                           ; 
    54                           ; Code-generator required, PIC16F1769 Definitions
    55                           ; 
    56                           ; SFR Addresses
    57  0000                     	;# 
    58  0001                     	;# 
    59  0002                     	;# 
    60  0003                     	;# 
    61  0004                     	;# 
    62  0005                     	;# 
    63  0006                     	;# 
    64  0007                     	;# 
    65  0008                     	;# 
    66  0009                     	;# 
    67  000A                     	;# 
    68  000B                     	;# 
    69  000C                     	;# 
    70  000D                     	;# 
    71  000E                     	;# 
    72  0011                     	;# 
    73  0012                     	;# 
    74  0013                     	;# 
    75  0014                     	;# 
    76  0015                     	;# 
    77  0016                     	;# 
    78  0016                     	;# 
    79  0017                     	;# 
    80  0018                     	;# 
    81  0019                     	;# 
    82  001A                     	;# 
    83  001A                     	;# 
    84  001B                     	;# 
    85  001B                     	;# 
    86  001C                     	;# 
    87  001D                     	;# 
    88  001E                     	;# 
    89  001F                     	;# 
    90  008C                     	;# 
    91  008D                     	;# 
    92  008E                     	;# 
    93  0091                     	;# 
    94  0092                     	;# 
    95  0093                     	;# 
    96  0094                     	;# 
    97  0095                     	;# 
    98  0096                     	;# 
    99  0097                     	;# 
   100  0098                     	;# 
   101  0099                     	;# 
   102  009A                     	;# 
   103  009B                     	;# 
   104  009B                     	;# 
   105  009C                     	;# 
   106  009D                     	;# 
   107  009E                     	;# 
   108  009F                     	;# 
   109  010C                     	;# 
   110  010D                     	;# 
   111  010E                     	;# 
   112  010F                     	;# 
   113  0110                     	;# 
   114  0111                     	;# 
   115  0112                     	;# 
   116  0113                     	;# 
   117  0114                     	;# 
   118  0115                     	;# 
   119  0116                     	;# 
   120  0117                     	;# 
   121  0118                     	;# 
   122  0119                     	;# 
   123  011A                     	;# 
   124  011B                     	;# 
   125  011C                     	;# 
   126  011D                     	;# 
   127  011E                     	;# 
   128  011F                     	;# 
   129  018C                     	;# 
   130  018D                     	;# 
   131  018E                     	;# 
   132  0191                     	;# 
   133  0191                     	;# 
   134  0192                     	;# 
   135  0193                     	;# 
   136  0193                     	;# 
   137  0194                     	;# 
   138  0195                     	;# 
   139  0196                     	;# 
   140  0197                     	;# 
   141  0199                     	;# 
   142  0199                     	;# 
   143  0199                     	;# 
   144  019A                     	;# 
   145  019A                     	;# 
   146  019A                     	;# 
   147  019B                     	;# 
   148  019B                     	;# 
   149  019B                     	;# 
   150  019B                     	;# 
   151  019B                     	;# 
   152  019C                     	;# 
   153  019C                     	;# 
   154  019C                     	;# 
   155  019D                     	;# 
   156  019D                     	;# 
   157  019D                     	;# 
   158  019E                     	;# 
   159  019E                     	;# 
   160  019E                     	;# 
   161  019F                     	;# 
   162  019F                     	;# 
   163  019F                     	;# 
   164  019F                     	;# 
   165  019F                     	;# 
   166  020C                     	;# 
   167  020D                     	;# 
   168  020E                     	;# 
   169  0211                     	;# 
   170  0211                     	;# 
   171  0212                     	;# 
   172  0212                     	;# 
   173  0213                     	;# 
   174  0213                     	;# 
   175  0214                     	;# 
   176  0214                     	;# 
   177  0215                     	;# 
   178  0215                     	;# 
   179  0215                     	;# 
   180  0215                     	;# 
   181  0216                     	;# 
   182  0216                     	;# 
   183  0217                     	;# 
   184  0217                     	;# 
   185  021D                     	;# 
   186  021E                     	;# 
   187  021F                     	;# 
   188  028C                     	;# 
   189  028D                     	;# 
   190  028E                     	;# 
   191  0291                     	;# 
   192  0291                     	;# 
   193  0292                     	;# 
   194  0293                     	;# 
   195  0294                     	;# 
   196  0298                     	;# 
   197  0298                     	;# 
   198  0299                     	;# 
   199  029A                     	;# 
   200  029B                     	;# 
   201  029E                     	;# 
   202  030C                     	;# 
   203  030D                     	;# 
   204  030E                     	;# 
   205  031B                     	;# 
   206  031C                     	;# 
   207  031D                     	;# 
   208  031E                     	;# 
   209  031F                     	;# 
   210  038C                     	;# 
   211  038D                     	;# 
   212  038E                     	;# 
   213  0391                     	;# 
   214  0392                     	;# 
   215  0393                     	;# 
   216  0394                     	;# 
   217  0395                     	;# 
   218  0396                     	;# 
   219  0397                     	;# 
   220  0398                     	;# 
   221  0399                     	;# 
   222  039B                     	;# 
   223  039C                     	;# 
   224  039D                     	;# 
   225  039E                     	;# 
   226  039F                     	;# 
   227  040E                     	;# 
   228  0413                     	;# 
   229  0413                     	;# 
   230  0414                     	;# 
   231  0414                     	;# 
   232  0415                     	;# 
   233  0416                     	;# 
   234  0417                     	;# 
   235  0418                     	;# 
   236  041A                     	;# 
   237  041A                     	;# 
   238  041B                     	;# 
   239  041B                     	;# 
   240  041C                     	;# 
   241  041D                     	;# 
   242  041E                     	;# 
   243  041F                     	;# 
   244  0493                     	;# 
   245  0493                     	;# 
   246  0494                     	;# 
   247  0495                     	;# 
   248  0496                     	;# 
   249  049A                     	;# 
   250  049A                     	;# 
   251  049B                     	;# 
   252  049C                     	;# 
   253  049D                     	;# 
   254  050F                     	;# 
   255  0510                     	;# 
   256  0511                     	;# 
   257  0512                     	;# 
   258  0513                     	;# 
   259  0514                     	;# 
   260  0515                     	;# 
   261  0516                     	;# 
   262  0590                     	;# 
   263  0591                     	;# 
   264  0592                     	;# 
   265  0592                     	;# 
   266  0592                     	;# 
   267  0593                     	;# 
   268  0593                     	;# 
   269  0594                     	;# 
   270  0595                     	;# 
   271  0595                     	;# 
   272  0595                     	;# 
   273  0596                     	;# 
   274  0596                     	;# 
   275  0597                     	;# 
   276  0598                     	;# 
   277  0598                     	;# 
   278  0599                     	;# 
   279  059A                     	;# 
   280  059A                     	;# 
   281  0617                     	;# 
   282  0617                     	;# 
   283  0618                     	;# 
   284  0619                     	;# 
   285  061A                     	;# 
   286  061A                     	;# 
   287  061B                     	;# 
   288  061C                     	;# 
   289  068D                     	;# 
   290  068E                     	;# 
   291  068F                     	;# 
   292  0690                     	;# 
   293  0691                     	;# 
   294  0692                     	;# 
   295  0693                     	;# 
   296  0694                     	;# 
   297  0695                     	;# 
   298  0696                     	;# 
   299  0697                     	;# 
   300  0698                     	;# 
   301  0699                     	;# 
   302  069A                     	;# 
   303  069B                     	;# 
   304  069C                     	;# 
   305  069D                     	;# 
   306  069E                     	;# 
   307  069F                     	;# 
   308  070D                     	;# 
   309  070E                     	;# 
   310  070F                     	;# 
   311  0710                     	;# 
   312  0711                     	;# 
   313  0712                     	;# 
   314  0713                     	;# 
   315  0714                     	;# 
   316  0715                     	;# 
   317  0716                     	;# 
   318  0717                     	;# 
   319  0718                     	;# 
   320  0719                     	;# 
   321  071A                     	;# 
   322  071B                     	;# 
   323  071C                     	;# 
   324  071D                     	;# 
   325  071E                     	;# 
   326  071F                     	;# 
   327  0794                     	;# 
   328  0795                     	;# 
   329  0796                     	;# 
   330  0797                     	;# 
   331  0798                     	;# 
   332  0799                     	;# 
   333  079A                     	;# 
   334  079B                     	;# 
   335  079C                     	;# 
   336  079D                     	;# 
   337  079E                     	;# 
   338  079F                     	;# 
   339  0D8E                     	;# 
   340  0D8F                     	;# 
   341  0D90                     	;# 
   342  0D91                     	;# 
   343  0D91                     	;# 
   344  0D92                     	;# 
   345  0D93                     	;# 
   346  0D93                     	;# 
   347  0D94                     	;# 
   348  0D95                     	;# 
   349  0D95                     	;# 
   350  0D96                     	;# 
   351  0D97                     	;# 
   352  0D97                     	;# 
   353  0D98                     	;# 
   354  0D99                     	;# 
   355  0D99                     	;# 
   356  0D9A                     	;# 
   357  0D9B                     	;# 
   358  0D9C                     	;# 
   359  0D9C                     	;# 
   360  0D9D                     	;# 
   361  0D9D                     	;# 
   362  0D9E                     	;# 
   363  0D9F                     	;# 
   364  0DA0                     	;# 
   365  0DA1                     	;# 
   366  0DA1                     	;# 
   367  0DA2                     	;# 
   368  0DA3                     	;# 
   369  0DA3                     	;# 
   370  0DA4                     	;# 
   371  0DA5                     	;# 
   372  0DA5                     	;# 
   373  0DA6                     	;# 
   374  0DA7                     	;# 
   375  0DA7                     	;# 
   376  0DA8                     	;# 
   377  0DA9                     	;# 
   378  0DA9                     	;# 
   379  0DAA                     	;# 
   380  0DAB                     	;# 
   381  0DAC                     	;# 
   382  0DAC                     	;# 
   383  0DAD                     	;# 
   384  0DAD                     	;# 
   385  0DAE                     	;# 
   386  0DAF                     	;# 
   387  0DB0                     	;# 
   388  0E0F                     	;# 
   389  0E10                     	;# 
   390  0E11                     	;# 
   391  0E12                     	;# 
   392  0E13                     	;# 
   393  0E14                     	;# 
   394  0E15                     	;# 
   395  0E16                     	;# 
   396  0E17                     	;# 
   397  0E19                     	;# 
   398  0E19                     	;# 
   399  0E19                     	;# 
   400  0E1A                     	;# 
   401  0E1B                     	;# 
   402  0E1C                     	;# 
   403  0E1C                     	;# 
   404  0E1C                     	;# 
   405  0E1D                     	;# 
   406  0E1E                     	;# 
   407  0E1F                     	;# 
   408  0E1F                     	;# 
   409  0E1F                     	;# 
   410  0E20                     	;# 
   411  0E21                     	;# 
   412  0E22                     	;# 
   413  0E24                     	;# 
   414  0E25                     	;# 
   415  0E28                     	;# 
   416  0E29                     	;# 
   417  0E2A                     	;# 
   418  0E2B                     	;# 
   419  0E2C                     	;# 
   420  0E2D                     	;# 
   421  0E2E                     	;# 
   422  0E2F                     	;# 
   423  0E30                     	;# 
   424  0E31                     	;# 
   425  0E32                     	;# 
   426  0E33                     	;# 
   427  0E34                     	;# 
   428  0E35                     	;# 
   429  0E90                     	;# 
   430  0E91                     	;# 
   431  0E92                     	;# 
   432  0E94                     	;# 
   433  0E95                     	;# 
   434  0E9C                     	;# 
   435  0E9D                     	;# 
   436  0E9E                     	;# 
   437  0E9F                     	;# 
   438  0EA0                     	;# 
   439  0EA1                     	;# 
   440  0EA2                     	;# 
   441  0EA3                     	;# 
   442  0EA4                     	;# 
   443  0EA5                     	;# 
   444  0EA6                     	;# 
   445  0EA7                     	;# 
   446  0F0F                     	;# 
   447  0F10                     	;# 
   448  0F11                     	;# 
   449  0F12                     	;# 
   450  0F13                     	;# 
   451  0F14                     	;# 
   452  0F15                     	;# 
   453  0F16                     	;# 
   454  0F17                     	;# 
   455  0F18                     	;# 
   456  0F19                     	;# 
   457  0F1A                     	;# 
   458  0F1B                     	;# 
   459  0F1C                     	;# 
   460  0F1D                     	;# 
   461  0F1E                     	;# 
   462  0F1F                     	;# 
   463  0F20                     	;# 
   464  0F21                     	;# 
   465  0F22                     	;# 
   466  0F23                     	;# 
   467  0F24                     	;# 
   468  0F25                     	;# 
   469  0F26                     	;# 
   470  0F27                     	;# 
   471  0F28                     	;# 
   472  0F29                     	;# 
   473  0F2A                     	;# 
   474  0F2B                     	;# 
   475  0F2C                     	;# 
   476  0F2D                     	;# 
   477  0FE4                     	;# 
   478  0FE5                     	;# 
   479  0FE6                     	;# 
   480  0FE7                     	;# 
   481  0FE8                     	;# 
   482  0FE9                     	;# 
   483  0FEA                     	;# 
   484  0FEB                     	;# 
   485  0FED                     	;# 
   486  0FEE                     	;# 
   487  0FEF                     	;# 
   488  0000                     	;# 
   489  0001                     	;# 
   490  0002                     	;# 
   491  0003                     	;# 
   492  0004                     	;# 
   493  0005                     	;# 
   494  0006                     	;# 
   495  0007                     	;# 
   496  0008                     	;# 
   497  0009                     	;# 
   498  000A                     	;# 
   499  000B                     	;# 
   500  000C                     	;# 
   501  000D                     	;# 
   502  000E                     	;# 
   503  0011                     	;# 
   504  0012                     	;# 
   505  0013                     	;# 
   506  0014                     	;# 
   507  0015                     	;# 
   508  0016                     	;# 
   509  0016                     	;# 
   510  0017                     	;# 
   511  0018                     	;# 
   512  0019                     	;# 
   513  001A                     	;# 
   514  001A                     	;# 
   515  001B                     	;# 
   516  001B                     	;# 
   517  001C                     	;# 
   518  001D                     	;# 
   519  001E                     	;# 
   520  001F                     	;# 
   521  008C                     	;# 
   522  008D                     	;# 
   523  008E                     	;# 
   524  0091                     	;# 
   525  0092                     	;# 
   526  0093                     	;# 
   527  0094                     	;# 
   528  0095                     	;# 
   529  0096                     	;# 
   530  0097                     	;# 
   531  0098                     	;# 
   532  0099                     	;# 
   533  009A                     	;# 
   534  009B                     	;# 
   535  009B                     	;# 
   536  009C                     	;# 
   537  009D                     	;# 
   538  009E                     	;# 
   539  009F                     	;# 
   540  010C                     	;# 
   541  010D                     	;# 
   542  010E                     	;# 
   543  010F                     	;# 
   544  0110                     	;# 
   545  0111                     	;# 
   546  0112                     	;# 
   547  0113                     	;# 
   548  0114                     	;# 
   549  0115                     	;# 
   550  0116                     	;# 
   551  0117                     	;# 
   552  0118                     	;# 
   553  0119                     	;# 
   554  011A                     	;# 
   555  011B                     	;# 
   556  011C                     	;# 
   557  011D                     	;# 
   558  011E                     	;# 
   559  011F                     	;# 
   560  018C                     	;# 
   561  018D                     	;# 
   562  018E                     	;# 
   563  0191                     	;# 
   564  0191                     	;# 
   565  0192                     	;# 
   566  0193                     	;# 
   567  0193                     	;# 
   568  0194                     	;# 
   569  0195                     	;# 
   570  0196                     	;# 
   571  0197                     	;# 
   572  0199                     	;# 
   573  0199                     	;# 
   574  0199                     	;# 
   575  019A                     	;# 
   576  019A                     	;# 
   577  019A                     	;# 
   578  019B                     	;# 
   579  019B                     	;# 
   580  019B                     	;# 
   581  019B                     	;# 
   582  019B                     	;# 
   583  019C                     	;# 
   584  019C                     	;# 
   585  019C                     	;# 
   586  019D                     	;# 
   587  019D                     	;# 
   588  019D                     	;# 
   589  019E                     	;# 
   590  019E                     	;# 
   591  019E                     	;# 
   592  019F                     	;# 
   593  019F                     	;# 
   594  019F                     	;# 
   595  019F                     	;# 
   596  019F                     	;# 
   597  020C                     	;# 
   598  020D                     	;# 
   599  020E                     	;# 
   600  0211                     	;# 
   601  0211                     	;# 
   602  0212                     	;# 
   603  0212                     	;# 
   604  0213                     	;# 
   605  0213                     	;# 
   606  0214                     	;# 
   607  0214                     	;# 
   608  0215                     	;# 
   609  0215                     	;# 
   610  0215                     	;# 
   611  0215                     	;# 
   612  0216                     	;# 
   613  0216                     	;# 
   614  0217                     	;# 
   615  0217                     	;# 
   616  021D                     	;# 
   617  021E                     	;# 
   618  021F                     	;# 
   619  028C                     	;# 
   620  028D                     	;# 
   621  028E                     	;# 
   622  0291                     	;# 
   623  0291                     	;# 
   624  0292                     	;# 
   625  0293                     	;# 
   626  0294                     	;# 
   627  0298                     	;# 
   628  0298                     	;# 
   629  0299                     	;# 
   630  029A                     	;# 
   631  029B                     	;# 
   632  029E                     	;# 
   633  030C                     	;# 
   634  030D                     	;# 
   635  030E                     	;# 
   636  031B                     	;# 
   637  031C                     	;# 
   638  031D                     	;# 
   639  031E                     	;# 
   640  031F                     	;# 
   641  038C                     	;# 
   642  038D                     	;# 
   643  038E                     	;# 
   644  0391                     	;# 
   645  0392                     	;# 
   646  0393                     	;# 
   647  0394                     	;# 
   648  0395                     	;# 
   649  0396                     	;# 
   650  0397                     	;# 
   651  0398                     	;# 
   652  0399                     	;# 
   653  039B                     	;# 
   654  039C                     	;# 
   655  039D                     	;# 
   656  039E                     	;# 
   657  039F                     	;# 
   658  040E                     	;# 
   659  0413                     	;# 
   660  0413                     	;# 
   661  0414                     	;# 
   662  0414                     	;# 
   663  0415                     	;# 
   664  0416                     	;# 
   665  0417                     	;# 
   666  0418                     	;# 
   667  041A                     	;# 
   668  041A                     	;# 
   669  041B                     	;# 
   670  041B                     	;# 
   671  041C                     	;# 
   672  041D                     	;# 
   673  041E                     	;# 
   674  041F                     	;# 
   675  0493                     	;# 
   676  0493                     	;# 
   677  0494                     	;# 
   678  0495                     	;# 
   679  0496                     	;# 
   680  049A                     	;# 
   681  049A                     	;# 
   682  049B                     	;# 
   683  049C                     	;# 
   684  049D                     	;# 
   685  050F                     	;# 
   686  0510                     	;# 
   687  0511                     	;# 
   688  0512                     	;# 
   689  0513                     	;# 
   690  0514                     	;# 
   691  0515                     	;# 
   692  0516                     	;# 
   693  0590                     	;# 
   694  0591                     	;# 
   695  0592                     	;# 
   696  0592                     	;# 
   697  0592                     	;# 
   698  0593                     	;# 
   699  0593                     	;# 
   700  0594                     	;# 
   701  0595                     	;# 
   702  0595                     	;# 
   703  0595                     	;# 
   704  0596                     	;# 
   705  0596                     	;# 
   706  0597                     	;# 
   707  0598                     	;# 
   708  0598                     	;# 
   709  0599                     	;# 
   710  059A                     	;# 
   711  059A                     	;# 
   712  0617                     	;# 
   713  0617                     	;# 
   714  0618                     	;# 
   715  0619                     	;# 
   716  061A                     	;# 
   717  061A                     	;# 
   718  061B                     	;# 
   719  061C                     	;# 
   720  068D                     	;# 
   721  068E                     	;# 
   722  068F                     	;# 
   723  0690                     	;# 
   724  0691                     	;# 
   725  0692                     	;# 
   726  0693                     	;# 
   727  0694                     	;# 
   728  0695                     	;# 
   729  0696                     	;# 
   730  0697                     	;# 
   731  0698                     	;# 
   732  0699                     	;# 
   733  069A                     	;# 
   734  069B                     	;# 
   735  069C                     	;# 
   736  069D                     	;# 
   737  069E                     	;# 
   738  069F                     	;# 
   739  070D                     	;# 
   740  070E                     	;# 
   741  070F                     	;# 
   742  0710                     	;# 
   743  0711                     	;# 
   744  0712                     	;# 
   745  0713                     	;# 
   746  0714                     	;# 
   747  0715                     	;# 
   748  0716                     	;# 
   749  0717                     	;# 
   750  0718                     	;# 
   751  0719                     	;# 
   752  071A                     	;# 
   753  071B                     	;# 
   754  071C                     	;# 
   755  071D                     	;# 
   756  071E                     	;# 
   757  071F                     	;# 
   758  0794                     	;# 
   759  0795                     	;# 
   760  0796                     	;# 
   761  0797                     	;# 
   762  0798                     	;# 
   763  0799                     	;# 
   764  079A                     	;# 
   765  079B                     	;# 
   766  079C                     	;# 
   767  079D                     	;# 
   768  079E                     	;# 
   769  079F                     	;# 
   770  0D8E                     	;# 
   771  0D8F                     	;# 
   772  0D90                     	;# 
   773  0D91                     	;# 
   774  0D91                     	;# 
   775  0D92                     	;# 
   776  0D93                     	;# 
   777  0D93                     	;# 
   778  0D94                     	;# 
   779  0D95                     	;# 
   780  0D95                     	;# 
   781  0D96                     	;# 
   782  0D97                     	;# 
   783  0D97                     	;# 
   784  0D98                     	;# 
   785  0D99                     	;# 
   786  0D99                     	;# 
   787  0D9A                     	;# 
   788  0D9B                     	;# 
   789  0D9C                     	;# 
   790  0D9C                     	;# 
   791  0D9D                     	;# 
   792  0D9D                     	;# 
   793  0D9E                     	;# 
   794  0D9F                     	;# 
   795  0DA0                     	;# 
   796  0DA1                     	;# 
   797  0DA1                     	;# 
   798  0DA2                     	;# 
   799  0DA3                     	;# 
   800  0DA3                     	;# 
   801  0DA4                     	;# 
   802  0DA5                     	;# 
   803  0DA5                     	;# 
   804  0DA6                     	;# 
   805  0DA7                     	;# 
   806  0DA7                     	;# 
   807  0DA8                     	;# 
   808  0DA9                     	;# 
   809  0DA9                     	;# 
   810  0DAA                     	;# 
   811  0DAB                     	;# 
   812  0DAC                     	;# 
   813  0DAC                     	;# 
   814  0DAD                     	;# 
   815  0DAD                     	;# 
   816  0DAE                     	;# 
   817  0DAF                     	;# 
   818  0DB0                     	;# 
   819  0E0F                     	;# 
   820  0E10                     	;# 
   821  0E11                     	;# 
   822  0E12                     	;# 
   823  0E13                     	;# 
   824  0E14                     	;# 
   825  0E15                     	;# 
   826  0E16                     	;# 
   827  0E17                     	;# 
   828  0E19                     	;# 
   829  0E19                     	;# 
   830  0E19                     	;# 
   831  0E1A                     	;# 
   832  0E1B                     	;# 
   833  0E1C                     	;# 
   834  0E1C                     	;# 
   835  0E1C                     	;# 
   836  0E1D                     	;# 
   837  0E1E                     	;# 
   838  0E1F                     	;# 
   839  0E1F                     	;# 
   840  0E1F                     	;# 
   841  0E20                     	;# 
   842  0E21                     	;# 
   843  0E22                     	;# 
   844  0E24                     	;# 
   845  0E25                     	;# 
   846  0E28                     	;# 
   847  0E29                     	;# 
   848  0E2A                     	;# 
   849  0E2B                     	;# 
   850  0E2C                     	;# 
   851  0E2D                     	;# 
   852  0E2E                     	;# 
   853  0E2F                     	;# 
   854  0E30                     	;# 
   855  0E31                     	;# 
   856  0E32                     	;# 
   857  0E33                     	;# 
   858  0E34                     	;# 
   859  0E35                     	;# 
   860  0E90                     	;# 
   861  0E91                     	;# 
   862  0E92                     	;# 
   863  0E94                     	;# 
   864  0E95                     	;# 
   865  0E9C                     	;# 
   866  0E9D                     	;# 
   867  0E9E                     	;# 
   868  0E9F                     	;# 
   869  0EA0                     	;# 
   870  0EA1                     	;# 
   871  0EA2                     	;# 
   872  0EA3                     	;# 
   873  0EA4                     	;# 
   874  0EA5                     	;# 
   875  0EA6                     	;# 
   876  0EA7                     	;# 
   877  0F0F                     	;# 
   878  0F10                     	;# 
   879  0F11                     	;# 
   880  0F12                     	;# 
   881  0F13                     	;# 
   882  0F14                     	;# 
   883  0F15                     	;# 
   884  0F16                     	;# 
   885  0F17                     	;# 
   886  0F18                     	;# 
   887  0F19                     	;# 
   888  0F1A                     	;# 
   889  0F1B                     	;# 
   890  0F1C                     	;# 
   891  0F1D                     	;# 
   892  0F1E                     	;# 
   893  0F1F                     	;# 
   894  0F20                     	;# 
   895  0F21                     	;# 
   896  0F22                     	;# 
   897  0F23                     	;# 
   898  0F24                     	;# 
   899  0F25                     	;# 
   900  0F26                     	;# 
   901  0F27                     	;# 
   902  0F28                     	;# 
   903  0F29                     	;# 
   904  0F2A                     	;# 
   905  0F2B                     	;# 
   906  0F2C                     	;# 
   907  0F2D                     	;# 
   908  0FE4                     	;# 
   909  0FE5                     	;# 
   910  0FE6                     	;# 
   911  0FE7                     	;# 
   912  0FE8                     	;# 
   913  0FE9                     	;# 
   914  0FEA                     	;# 
   915  0FEB                     	;# 
   916  0FED                     	;# 
   917  0FEE                     	;# 
   918  0FEF                     	;# 
   919  0000                     	;# 
   920  0001                     	;# 
   921  0002                     	;# 
   922  0003                     	;# 
   923  0004                     	;# 
   924  0005                     	;# 
   925  0006                     	;# 
   926  0007                     	;# 
   927  0008                     	;# 
   928  0009                     	;# 
   929  000A                     	;# 
   930  000B                     	;# 
   931  000C                     	;# 
   932  000D                     	;# 
   933  000E                     	;# 
   934  0011                     	;# 
   935  0012                     	;# 
   936  0013                     	;# 
   937  0014                     	;# 
   938  0015                     	;# 
   939  0016                     	;# 
   940  0016                     	;# 
   941  0017                     	;# 
   942  0018                     	;# 
   943  0019                     	;# 
   944  001A                     	;# 
   945  001A                     	;# 
   946  001B                     	;# 
   947  001B                     	;# 
   948  001C                     	;# 
   949  001D                     	;# 
   950  001E                     	;# 
   951  001F                     	;# 
   952  008C                     	;# 
   953  008D                     	;# 
   954  008E                     	;# 
   955  0091                     	;# 
   956  0092                     	;# 
   957  0093                     	;# 
   958  0094                     	;# 
   959  0095                     	;# 
   960  0096                     	;# 
   961  0097                     	;# 
   962  0098                     	;# 
   963  0099                     	;# 
   964  009A                     	;# 
   965  009B                     	;# 
   966  009B                     	;# 
   967  009C                     	;# 
   968  009D                     	;# 
   969  009E                     	;# 
   970  009F                     	;# 
   971  010C                     	;# 
   972  010D                     	;# 
   973  010E                     	;# 
   974  010F                     	;# 
   975  0110                     	;# 
   976  0111                     	;# 
   977  0112                     	;# 
   978  0113                     	;# 
   979  0114                     	;# 
   980  0115                     	;# 
   981  0116                     	;# 
   982  0117                     	;# 
   983  0118                     	;# 
   984  0119                     	;# 
   985  011A                     	;# 
   986  011B                     	;# 
   987  011C                     	;# 
   988  011D                     	;# 
   989  011E                     	;# 
   990  011F                     	;# 
   991  018C                     	;# 
   992  018D                     	;# 
   993  018E                     	;# 
   994  0191                     	;# 
   995  0191                     	;# 
   996  0192                     	;# 
   997  0193                     	;# 
   998  0193                     	;# 
   999  0194                     	;# 
  1000  0195                     	;# 
  1001  0196                     	;# 
  1002  0197                     	;# 
  1003  0199                     	;# 
  1004  0199                     	;# 
  1005  0199                     	;# 
  1006  019A                     	;# 
  1007  019A                     	;# 
  1008  019A                     	;# 
  1009  019B                     	;# 
  1010  019B                     	;# 
  1011  019B                     	;# 
  1012  019B                     	;# 
  1013  019B                     	;# 
  1014  019C                     	;# 
  1015  019C                     	;# 
  1016  019C                     	;# 
  1017  019D                     	;# 
  1018  019D                     	;# 
  1019  019D                     	;# 
  1020  019E                     	;# 
  1021  019E                     	;# 
  1022  019E                     	;# 
  1023  019F                     	;# 
  1024  019F                     	;# 
  1025  019F                     	;# 
  1026  019F                     	;# 
  1027  019F                     	;# 
  1028  020C                     	;# 
  1029  020D                     	;# 
  1030  020E                     	;# 
  1031  0211                     	;# 
  1032  0211                     	;# 
  1033  0212                     	;# 
  1034  0212                     	;# 
  1035  0213                     	;# 
  1036  0213                     	;# 
  1037  0214                     	;# 
  1038  0214                     	;# 
  1039  0215                     	;# 
  1040  0215                     	;# 
  1041  0215                     	;# 
  1042  0215                     	;# 
  1043  0216                     	;# 
  1044  0216                     	;# 
  1045  0217                     	;# 
  1046  0217                     	;# 
  1047  021D                     	;# 
  1048  021E                     	;# 
  1049  021F                     	;# 
  1050  028C                     	;# 
  1051  028D                     	;# 
  1052  028E                     	;# 
  1053  0291                     	;# 
  1054  0291                     	;# 
  1055  0292                     	;# 
  1056  0293                     	;# 
  1057  0294                     	;# 
  1058  0298                     	;# 
  1059  0298                     	;# 
  1060  0299                     	;# 
  1061  029A                     	;# 
  1062  029B                     	;# 
  1063  029E                     	;# 
  1064  030C                     	;# 
  1065  030D                     	;# 
  1066  030E                     	;# 
  1067  031B                     	;# 
  1068  031C                     	;# 
  1069  031D                     	;# 
  1070  031E                     	;# 
  1071  031F                     	;# 
  1072  038C                     	;# 
  1073  038D                     	;# 
  1074  038E                     	;# 
  1075  0391                     	;# 
  1076  0392                     	;# 
  1077  0393                     	;# 
  1078  0394                     	;# 
  1079  0395                     	;# 
  1080  0396                     	;# 
  1081  0397                     	;# 
  1082  0398                     	;# 
  1083  0399                     	;# 
  1084  039B                     	;# 
  1085  039C                     	;# 
  1086  039D                     	;# 
  1087  039E                     	;# 
  1088  039F                     	;# 
  1089  040E                     	;# 
  1090  0413                     	;# 
  1091  0413                     	;# 
  1092  0414                     	;# 
  1093  0414                     	;# 
  1094  0415                     	;# 
  1095  0416                     	;# 
  1096  0417                     	;# 
  1097  0418                     	;# 
  1098  041A                     	;# 
  1099  041A                     	;# 
  1100  041B                     	;# 
  1101  041B                     	;# 
  1102  041C                     	;# 
  1103  041D                     	;# 
  1104  041E                     	;# 
  1105  041F                     	;# 
  1106  0493                     	;# 
  1107  0493                     	;# 
  1108  0494                     	;# 
  1109  0495                     	;# 
  1110  0496                     	;# 
  1111  049A                     	;# 
  1112  049A                     	;# 
  1113  049B                     	;# 
  1114  049C                     	;# 
  1115  049D                     	;# 
  1116  050F                     	;# 
  1117  0510                     	;# 
  1118  0511                     	;# 
  1119  0512                     	;# 
  1120  0513                     	;# 
  1121  0514                     	;# 
  1122  0515                     	;# 
  1123  0516                     	;# 
  1124  0590                     	;# 
  1125  0591                     	;# 
  1126  0592                     	;# 
  1127  0592                     	;# 
  1128  0592                     	;# 
  1129  0593                     	;# 
  1130  0593                     	;# 
  1131  0594                     	;# 
  1132  0595                     	;# 
  1133  0595                     	;# 
  1134  0595                     	;# 
  1135  0596                     	;# 
  1136  0596                     	;# 
  1137  0597                     	;# 
  1138  0598                     	;# 
  1139  0598                     	;# 
  1140  0599                     	;# 
  1141  059A                     	;# 
  1142  059A                     	;# 
  1143  0617                     	;# 
  1144  0617                     	;# 
  1145  0618                     	;# 
  1146  0619                     	;# 
  1147  061A                     	;# 
  1148  061A                     	;# 
  1149  061B                     	;# 
  1150  061C                     	;# 
  1151  068D                     	;# 
  1152  068E                     	;# 
  1153  068F                     	;# 
  1154  0690                     	;# 
  1155  0691                     	;# 
  1156  0692                     	;# 
  1157  0693                     	;# 
  1158  0694                     	;# 
  1159  0695                     	;# 
  1160  0696                     	;# 
  1161  0697                     	;# 
  1162  0698                     	;# 
  1163  0699                     	;# 
  1164  069A                     	;# 
  1165  069B                     	;# 
  1166  069C                     	;# 
  1167  069D                     	;# 
  1168  069E                     	;# 
  1169  069F                     	;# 
  1170  070D                     	;# 
  1171  070E                     	;# 
  1172  070F                     	;# 
  1173  0710                     	;# 
  1174  0711                     	;# 
  1175  0712                     	;# 
  1176  0713                     	;# 
  1177  0714                     	;# 
  1178  0715                     	;# 
  1179  0716                     	;# 
  1180  0717                     	;# 
  1181  0718                     	;# 
  1182  0719                     	;# 
  1183  071A                     	;# 
  1184  071B                     	;# 
  1185  071C                     	;# 
  1186  071D                     	;# 
  1187  071E                     	;# 
  1188  071F                     	;# 
  1189  0794                     	;# 
  1190  0795                     	;# 
  1191  0796                     	;# 
  1192  0797                     	;# 
  1193  0798                     	;# 
  1194  0799                     	;# 
  1195  079A                     	;# 
  1196  079B                     	;# 
  1197  079C                     	;# 
  1198  079D                     	;# 
  1199  079E                     	;# 
  1200  079F                     	;# 
  1201  0D8E                     	;# 
  1202  0D8F                     	;# 
  1203  0D90                     	;# 
  1204  0D91                     	;# 
  1205  0D91                     	;# 
  1206  0D92                     	;# 
  1207  0D93                     	;# 
  1208  0D93                     	;# 
  1209  0D94                     	;# 
  1210  0D95                     	;# 
  1211  0D95                     	;# 
  1212  0D96                     	;# 
  1213  0D97                     	;# 
  1214  0D97                     	;# 
  1215  0D98                     	;# 
  1216  0D99                     	;# 
  1217  0D99                     	;# 
  1218  0D9A                     	;# 
  1219  0D9B                     	;# 
  1220  0D9C                     	;# 
  1221  0D9C                     	;# 
  1222  0D9D                     	;# 
  1223  0D9D                     	;# 
  1224  0D9E                     	;# 
  1225  0D9F                     	;# 
  1226  0DA0                     	;# 
  1227  0DA1                     	;# 
  1228  0DA1                     	;# 
  1229  0DA2                     	;# 
  1230  0DA3                     	;# 
  1231  0DA3                     	;# 
  1232  0DA4                     	;# 
  1233  0DA5                     	;# 
  1234  0DA5                     	;# 
  1235  0DA6                     	;# 
  1236  0DA7                     	;# 
  1237  0DA7                     	;# 
  1238  0DA8                     	;# 
  1239  0DA9                     	;# 
  1240  0DA9                     	;# 
  1241  0DAA                     	;# 
  1242  0DAB                     	;# 
  1243  0DAC                     	;# 
  1244  0DAC                     	;# 
  1245  0DAD                     	;# 
  1246  0DAD                     	;# 
  1247  0DAE                     	;# 
  1248  0DAF                     	;# 
  1249  0DB0                     	;# 
  1250  0E0F                     	;# 
  1251  0E10                     	;# 
  1252  0E11                     	;# 
  1253  0E12                     	;# 
  1254  0E13                     	;# 
  1255  0E14                     	;# 
  1256  0E15                     	;# 
  1257  0E16                     	;# 
  1258  0E17                     	;# 
  1259  0E19                     	;# 
  1260  0E19                     	;# 
  1261  0E19                     	;# 
  1262  0E1A                     	;# 
  1263  0E1B                     	;# 
  1264  0E1C                     	;# 
  1265  0E1C                     	;# 
  1266  0E1C                     	;# 
  1267  0E1D                     	;# 
  1268  0E1E                     	;# 
  1269  0E1F                     	;# 
  1270  0E1F                     	;# 
  1271  0E1F                     	;# 
  1272  0E20                     	;# 
  1273  0E21                     	;# 
  1274  0E22                     	;# 
  1275  0E24                     	;# 
  1276  0E25                     	;# 
  1277  0E28                     	;# 
  1278  0E29                     	;# 
  1279  0E2A                     	;# 
  1280  0E2B                     	;# 
  1281  0E2C                     	;# 
  1282  0E2D                     	;# 
  1283  0E2E                     	;# 
  1284  0E2F                     	;# 
  1285  0E30                     	;# 
  1286  0E31                     	;# 
  1287  0E32                     	;# 
  1288  0E33                     	;# 
  1289  0E34                     	;# 
  1290  0E35                     	;# 
  1291  0E90                     	;# 
  1292  0E91                     	;# 
  1293  0E92                     	;# 
  1294  0E94                     	;# 
  1295  0E95                     	;# 
  1296  0E9C                     	;# 
  1297  0E9D                     	;# 
  1298  0E9E                     	;# 
  1299  0E9F                     	;# 
  1300  0EA0                     	;# 
  1301  0EA1                     	;# 
  1302  0EA2                     	;# 
  1303  0EA3                     	;# 
  1304  0EA4                     	;# 
  1305  0EA5                     	;# 
  1306  0EA6                     	;# 
  1307  0EA7                     	;# 
  1308  0F0F                     	;# 
  1309  0F10                     	;# 
  1310  0F11                     	;# 
  1311  0F12                     	;# 
  1312  0F13                     	;# 
  1313  0F14                     	;# 
  1314  0F15                     	;# 
  1315  0F16                     	;# 
  1316  0F17                     	;# 
  1317  0F18                     	;# 
  1318  0F19                     	;# 
  1319  0F1A                     	;# 
  1320  0F1B                     	;# 
  1321  0F1C                     	;# 
  1322  0F1D                     	;# 
  1323  0F1E                     	;# 
  1324  0F1F                     	;# 
  1325  0F20                     	;# 
  1326  0F21                     	;# 
  1327  0F22                     	;# 
  1328  0F23                     	;# 
  1329  0F24                     	;# 
  1330  0F25                     	;# 
  1331  0F26                     	;# 
  1332  0F27                     	;# 
  1333  0F28                     	;# 
  1334  0F29                     	;# 
  1335  0F2A                     	;# 
  1336  0F2B                     	;# 
  1337  0F2C                     	;# 
  1338  0F2D                     	;# 
  1339  0FE4                     	;# 
  1340  0FE5                     	;# 
  1341  0FE6                     	;# 
  1342  0FE7                     	;# 
  1343  0FE8                     	;# 
  1344  0FE9                     	;# 
  1345  0FEA                     	;# 
  1346  0FEB                     	;# 
  1347  0FED                     	;# 
  1348  0FEE                     	;# 
  1349  0FEF                     	;# 
  1350  0000                     	;# 
  1351  0001                     	;# 
  1352  0002                     	;# 
  1353  0003                     	;# 
  1354  0004                     	;# 
  1355  0005                     	;# 
  1356  0006                     	;# 
  1357  0007                     	;# 
  1358  0008                     	;# 
  1359  0009                     	;# 
  1360  000A                     	;# 
  1361  000B                     	;# 
  1362  000C                     	;# 
  1363  000D                     	;# 
  1364  000E                     	;# 
  1365  0011                     	;# 
  1366  0012                     	;# 
  1367  0013                     	;# 
  1368  0014                     	;# 
  1369  0015                     	;# 
  1370  0016                     	;# 
  1371  0016                     	;# 
  1372  0017                     	;# 
  1373  0018                     	;# 
  1374  0019                     	;# 
  1375  001A                     	;# 
  1376  001A                     	;# 
  1377  001B                     	;# 
  1378  001B                     	;# 
  1379  001C                     	;# 
  1380  001D                     	;# 
  1381  001E                     	;# 
  1382  001F                     	;# 
  1383  008C                     	;# 
  1384  008D                     	;# 
  1385  008E                     	;# 
  1386  0091                     	;# 
  1387  0092                     	;# 
  1388  0093                     	;# 
  1389  0094                     	;# 
  1390  0095                     	;# 
  1391  0096                     	;# 
  1392  0097                     	;# 
  1393  0098                     	;# 
  1394  0099                     	;# 
  1395  009A                     	;# 
  1396  009B                     	;# 
  1397  009B                     	;# 
  1398  009C                     	;# 
  1399  009D                     	;# 
  1400  009E                     	;# 
  1401  009F                     	;# 
  1402  010C                     	;# 
  1403  010D                     	;# 
  1404  010E                     	;# 
  1405  010F                     	;# 
  1406  0110                     	;# 
  1407  0111                     	;# 
  1408  0112                     	;# 
  1409  0113                     	;# 
  1410  0114                     	;# 
  1411  0115                     	;# 
  1412  0116                     	;# 
  1413  0117                     	;# 
  1414  0118                     	;# 
  1415  0119                     	;# 
  1416  011A                     	;# 
  1417  011B                     	;# 
  1418  011C                     	;# 
  1419  011D                     	;# 
  1420  011E                     	;# 
  1421  011F                     	;# 
  1422  018C                     	;# 
  1423  018D                     	;# 
  1424  018E                     	;# 
  1425  0191                     	;# 
  1426  0191                     	;# 
  1427  0192                     	;# 
  1428  0193                     	;# 
  1429  0193                     	;# 
  1430  0194                     	;# 
  1431  0195                     	;# 
  1432  0196                     	;# 
  1433  0197                     	;# 
  1434  0199                     	;# 
  1435  0199                     	;# 
  1436  0199                     	;# 
  1437  019A                     	;# 
  1438  019A                     	;# 
  1439  019A                     	;# 
  1440  019B                     	;# 
  1441  019B                     	;# 
  1442  019B                     	;# 
  1443  019B                     	;# 
  1444  019B                     	;# 
  1445  019C                     	;# 
  1446  019C                     	;# 
  1447  019C                     	;# 
  1448  019D                     	;# 
  1449  019D                     	;# 
  1450  019D                     	;# 
  1451  019E                     	;# 
  1452  019E                     	;# 
  1453  019E                     	;# 
  1454  019F                     	;# 
  1455  019F                     	;# 
  1456  019F                     	;# 
  1457  019F                     	;# 
  1458  019F                     	;# 
  1459  020C                     	;# 
  1460  020D                     	;# 
  1461  020E                     	;# 
  1462  0211                     	;# 
  1463  0211                     	;# 
  1464  0212                     	;# 
  1465  0212                     	;# 
  1466  0213                     	;# 
  1467  0213                     	;# 
  1468  0214                     	;# 
  1469  0214                     	;# 
  1470  0215                     	;# 
  1471  0215                     	;# 
  1472  0215                     	;# 
  1473  0215                     	;# 
  1474  0216                     	;# 
  1475  0216                     	;# 
  1476  0217                     	;# 
  1477  0217                     	;# 
  1478  021D                     	;# 
  1479  021E                     	;# 
  1480  021F                     	;# 
  1481  028C                     	;# 
  1482  028D                     	;# 
  1483  028E                     	;# 
  1484  0291                     	;# 
  1485  0291                     	;# 
  1486  0292                     	;# 
  1487  0293                     	;# 
  1488  0294                     	;# 
  1489  0298                     	;# 
  1490  0298                     	;# 
  1491  0299                     	;# 
  1492  029A                     	;# 
  1493  029B                     	;# 
  1494  029E                     	;# 
  1495  030C                     	;# 
  1496  030D                     	;# 
  1497  030E                     	;# 
  1498  031B                     	;# 
  1499  031C                     	;# 
  1500  031D                     	;# 
  1501  031E                     	;# 
  1502  031F                     	;# 
  1503  038C                     	;# 
  1504  038D                     	;# 
  1505  038E                     	;# 
  1506  0391                     	;# 
  1507  0392                     	;# 
  1508  0393                     	;# 
  1509  0394                     	;# 
  1510  0395                     	;# 
  1511  0396                     	;# 
  1512  0397                     	;# 
  1513  0398                     	;# 
  1514  0399                     	;# 
  1515  039B                     	;# 
  1516  039C                     	;# 
  1517  039D                     	;# 
  1518  039E                     	;# 
  1519  039F                     	;# 
  1520  040E                     	;# 
  1521  0413                     	;# 
  1522  0413                     	;# 
  1523  0414                     	;# 
  1524  0414                     	;# 
  1525  0415                     	;# 
  1526  0416                     	;# 
  1527  0417                     	;# 
  1528  0418                     	;# 
  1529  041A                     	;# 
  1530  041A                     	;# 
  1531  041B                     	;# 
  1532  041B                     	;# 
  1533  041C                     	;# 
  1534  041D                     	;# 
  1535  041E                     	;# 
  1536  041F                     	;# 
  1537  0493                     	;# 
  1538  0493                     	;# 
  1539  0494                     	;# 
  1540  0495                     	;# 
  1541  0496                     	;# 
  1542  049A                     	;# 
  1543  049A                     	;# 
  1544  049B                     	;# 
  1545  049C                     	;# 
  1546  049D                     	;# 
  1547  050F                     	;# 
  1548  0510                     	;# 
  1549  0511                     	;# 
  1550  0512                     	;# 
  1551  0513                     	;# 
  1552  0514                     	;# 
  1553  0515                     	;# 
  1554  0516                     	;# 
  1555  0590                     	;# 
  1556  0591                     	;# 
  1557  0592                     	;# 
  1558  0592                     	;# 
  1559  0592                     	;# 
  1560  0593                     	;# 
  1561  0593                     	;# 
  1562  0594                     	;# 
  1563  0595                     	;# 
  1564  0595                     	;# 
  1565  0595                     	;# 
  1566  0596                     	;# 
  1567  0596                     	;# 
  1568  0597                     	;# 
  1569  0598                     	;# 
  1570  0598                     	;# 
  1571  0599                     	;# 
  1572  059A                     	;# 
  1573  059A                     	;# 
  1574  0617                     	;# 
  1575  0617                     	;# 
  1576  0618                     	;# 
  1577  0619                     	;# 
  1578  061A                     	;# 
  1579  061A                     	;# 
  1580  061B                     	;# 
  1581  061C                     	;# 
  1582  068D                     	;# 
  1583  068E                     	;# 
  1584  068F                     	;# 
  1585  0690                     	;# 
  1586  0691                     	;# 
  1587  0692                     	;# 
  1588  0693                     	;# 
  1589  0694                     	;# 
  1590  0695                     	;# 
  1591  0696                     	;# 
  1592  0697                     	;# 
  1593  0698                     	;# 
  1594  0699                     	;# 
  1595  069A                     	;# 
  1596  069B                     	;# 
  1597  069C                     	;# 
  1598  069D                     	;# 
  1599  069E                     	;# 
  1600  069F                     	;# 
  1601  070D                     	;# 
  1602  070E                     	;# 
  1603  070F                     	;# 
  1604  0710                     	;# 
  1605  0711                     	;# 
  1606  0712                     	;# 
  1607  0713                     	;# 
  1608  0714                     	;# 
  1609  0715                     	;# 
  1610  0716                     	;# 
  1611  0717                     	;# 
  1612  0718                     	;# 
  1613  0719                     	;# 
  1614  071A                     	;# 
  1615  071B                     	;# 
  1616  071C                     	;# 
  1617  071D                     	;# 
  1618  071E                     	;# 
  1619  071F                     	;# 
  1620  0794                     	;# 
  1621  0795                     	;# 
  1622  0796                     	;# 
  1623  0797                     	;# 
  1624  0798                     	;# 
  1625  0799                     	;# 
  1626  079A                     	;# 
  1627  079B                     	;# 
  1628  079C                     	;# 
  1629  079D                     	;# 
  1630  079E                     	;# 
  1631  079F                     	;# 
  1632  0D8E                     	;# 
  1633  0D8F                     	;# 
  1634  0D90                     	;# 
  1635  0D91                     	;# 
  1636  0D91                     	;# 
  1637  0D92                     	;# 
  1638  0D93                     	;# 
  1639  0D93                     	;# 
  1640  0D94                     	;# 
  1641  0D95                     	;# 
  1642  0D95                     	;# 
  1643  0D96                     	;# 
  1644  0D97                     	;# 
  1645  0D97                     	;# 
  1646  0D98                     	;# 
  1647  0D99                     	;# 
  1648  0D99                     	;# 
  1649  0D9A                     	;# 
  1650  0D9B                     	;# 
  1651  0D9C                     	;# 
  1652  0D9C                     	;# 
  1653  0D9D                     	;# 
  1654  0D9D                     	;# 
  1655  0D9E                     	;# 
  1656  0D9F                     	;# 
  1657  0DA0                     	;# 
  1658  0DA1                     	;# 
  1659  0DA1                     	;# 
  1660  0DA2                     	;# 
  1661  0DA3                     	;# 
  1662  0DA3                     	;# 
  1663  0DA4                     	;# 
  1664  0DA5                     	;# 
  1665  0DA5                     	;# 
  1666  0DA6                     	;# 
  1667  0DA7                     	;# 
  1668  0DA7                     	;# 
  1669  0DA8                     	;# 
  1670  0DA9                     	;# 
  1671  0DA9                     	;# 
  1672  0DAA                     	;# 
  1673  0DAB                     	;# 
  1674  0DAC                     	;# 
  1675  0DAC                     	;# 
  1676  0DAD                     	;# 
  1677  0DAD                     	;# 
  1678  0DAE                     	;# 
  1679  0DAF                     	;# 
  1680  0DB0                     	;# 
  1681  0E0F                     	;# 
  1682  0E10                     	;# 
  1683  0E11                     	;# 
  1684  0E12                     	;# 
  1685  0E13                     	;# 
  1686  0E14                     	;# 
  1687  0E15                     	;# 
  1688  0E16                     	;# 
  1689  0E17                     	;# 
  1690  0E19                     	;# 
  1691  0E19                     	;# 
  1692  0E19                     	;# 
  1693  0E1A                     	;# 
  1694  0E1B                     	;# 
  1695  0E1C                     	;# 
  1696  0E1C                     	;# 
  1697  0E1C                     	;# 
  1698  0E1D                     	;# 
  1699  0E1E                     	;# 
  1700  0E1F                     	;# 
  1701  0E1F                     	;# 
  1702  0E1F                     	;# 
  1703  0E20                     	;# 
  1704  0E21                     	;# 
  1705  0E22                     	;# 
  1706  0E24                     	;# 
  1707  0E25                     	;# 
  1708  0E28                     	;# 
  1709  0E29                     	;# 
  1710  0E2A                     	;# 
  1711  0E2B                     	;# 
  1712  0E2C                     	;# 
  1713  0E2D                     	;# 
  1714  0E2E                     	;# 
  1715  0E2F                     	;# 
  1716  0E30                     	;# 
  1717  0E31                     	;# 
  1718  0E32                     	;# 
  1719  0E33                     	;# 
  1720  0E34                     	;# 
  1721  0E35                     	;# 
  1722  0E90                     	;# 
  1723  0E91                     	;# 
  1724  0E92                     	;# 
  1725  0E94                     	;# 
  1726  0E95                     	;# 
  1727  0E9C                     	;# 
  1728  0E9D                     	;# 
  1729  0E9E                     	;# 
  1730  0E9F                     	;# 
  1731  0EA0                     	;# 
  1732  0EA1                     	;# 
  1733  0EA2                     	;# 
  1734  0EA3                     	;# 
  1735  0EA4                     	;# 
  1736  0EA5                     	;# 
  1737  0EA6                     	;# 
  1738  0EA7                     	;# 
  1739  0F0F                     	;# 
  1740  0F10                     	;# 
  1741  0F11                     	;# 
  1742  0F12                     	;# 
  1743  0F13                     	;# 
  1744  0F14                     	;# 
  1745  0F15                     	;# 
  1746  0F16                     	;# 
  1747  0F17                     	;# 
  1748  0F18                     	;# 
  1749  0F19                     	;# 
  1750  0F1A                     	;# 
  1751  0F1B                     	;# 
  1752  0F1C                     	;# 
  1753  0F1D                     	;# 
  1754  0F1E                     	;# 
  1755  0F1F                     	;# 
  1756  0F20                     	;# 
  1757  0F21                     	;# 
  1758  0F22                     	;# 
  1759  0F23                     	;# 
  1760  0F24                     	;# 
  1761  0F25                     	;# 
  1762  0F26                     	;# 
  1763  0F27                     	;# 
  1764  0F28                     	;# 
  1765  0F29                     	;# 
  1766  0F2A                     	;# 
  1767  0F2B                     	;# 
  1768  0F2C                     	;# 
  1769  0F2D                     	;# 
  1770  0FE4                     	;# 
  1771  0FE5                     	;# 
  1772  0FE6                     	;# 
  1773  0FE7                     	;# 
  1774  0FE8                     	;# 
  1775  0FE9                     	;# 
  1776  0FEA                     	;# 
  1777  0FEB                     	;# 
  1778  0FED                     	;# 
  1779  0FEE                     	;# 
  1780  0FEF                     	;# 
  1781  0000                     	;# 
  1782  0001                     	;# 
  1783  0002                     	;# 
  1784  0003                     	;# 
  1785  0004                     	;# 
  1786  0005                     	;# 
  1787  0006                     	;# 
  1788  0007                     	;# 
  1789  0008                     	;# 
  1790  0009                     	;# 
  1791  000A                     	;# 
  1792  000B                     	;# 
  1793  000C                     	;# 
  1794  000D                     	;# 
  1795  000E                     	;# 
  1796  0011                     	;# 
  1797  0012                     	;# 
  1798  0013                     	;# 
  1799  0014                     	;# 
  1800  0015                     	;# 
  1801  0016                     	;# 
  1802  0016                     	;# 
  1803  0017                     	;# 
  1804  0018                     	;# 
  1805  0019                     	;# 
  1806  001A                     	;# 
  1807  001A                     	;# 
  1808  001B                     	;# 
  1809  001B                     	;# 
  1810  001C                     	;# 
  1811  001D                     	;# 
  1812  001E                     	;# 
  1813  001F                     	;# 
  1814  008C                     	;# 
  1815  008D                     	;# 
  1816  008E                     	;# 
  1817  0091                     	;# 
  1818  0092                     	;# 
  1819  0093                     	;# 
  1820  0094                     	;# 
  1821  0095                     	;# 
  1822  0096                     	;# 
  1823  0097                     	;# 
  1824  0098                     	;# 
  1825  0099                     	;# 
  1826  009A                     	;# 
  1827  009B                     	;# 
  1828  009B                     	;# 
  1829  009C                     	;# 
  1830  009D                     	;# 
  1831  009E                     	;# 
  1832  009F                     	;# 
  1833  010C                     	;# 
  1834  010D                     	;# 
  1835  010E                     	;# 
  1836  010F                     	;# 
  1837  0110                     	;# 
  1838  0111                     	;# 
  1839  0112                     	;# 
  1840  0113                     	;# 
  1841  0114                     	;# 
  1842  0115                     	;# 
  1843  0116                     	;# 
  1844  0117                     	;# 
  1845  0118                     	;# 
  1846  0119                     	;# 
  1847  011A                     	;# 
  1848  011B                     	;# 
  1849  011C                     	;# 
  1850  011D                     	;# 
  1851  011E                     	;# 
  1852  011F                     	;# 
  1853  018C                     	;# 
  1854  018D                     	;# 
  1855  018E                     	;# 
  1856  0191                     	;# 
  1857  0191                     	;# 
  1858  0192                     	;# 
  1859  0193                     	;# 
  1860  0193                     	;# 
  1861  0194                     	;# 
  1862  0195                     	;# 
  1863  0196                     	;# 
  1864  0197                     	;# 
  1865  0199                     	;# 
  1866  0199                     	;# 
  1867  0199                     	;# 
  1868  019A                     	;# 
  1869  019A                     	;# 
  1870  019A                     	;# 
  1871  019B                     	;# 
  1872  019B                     	;# 
  1873  019B                     	;# 
  1874  019B                     	;# 
  1875  019B                     	;# 
  1876  019C                     	;# 
  1877  019C                     	;# 
  1878  019C                     	;# 
  1879  019D                     	;# 
  1880  019D                     	;# 
  1881  019D                     	;# 
  1882  019E                     	;# 
  1883  019E                     	;# 
  1884  019E                     	;# 
  1885  019F                     	;# 
  1886  019F                     	;# 
  1887  019F                     	;# 
  1888  019F                     	;# 
  1889  019F                     	;# 
  1890  020C                     	;# 
  1891  020D                     	;# 
  1892  020E                     	;# 
  1893  0211                     	;# 
  1894  0211                     	;# 
  1895  0212                     	;# 
  1896  0212                     	;# 
  1897  0213                     	;# 
  1898  0213                     	;# 
  1899  0214                     	;# 
  1900  0214                     	;# 
  1901  0215                     	;# 
  1902  0215                     	;# 
  1903  0215                     	;# 
  1904  0215                     	;# 
  1905  0216                     	;# 
  1906  0216                     	;# 
  1907  0217                     	;# 
  1908  0217                     	;# 
  1909  021D                     	;# 
  1910  021E                     	;# 
  1911  021F                     	;# 
  1912  028C                     	;# 
  1913  028D                     	;# 
  1914  028E                     	;# 
  1915  0291                     	;# 
  1916  0291                     	;# 
  1917  0292                     	;# 
  1918  0293                     	;# 
  1919  0294                     	;# 
  1920  0298                     	;# 
  1921  0298                     	;# 
  1922  0299                     	;# 
  1923  029A                     	;# 
  1924  029B                     	;# 
  1925  029E                     	;# 
  1926  030C                     	;# 
  1927  030D                     	;# 
  1928  030E                     	;# 
  1929  031B                     	;# 
  1930  031C                     	;# 
  1931  031D                     	;# 
  1932  031E                     	;# 
  1933  031F                     	;# 
  1934  038C                     	;# 
  1935  038D                     	;# 
  1936  038E                     	;# 
  1937  0391                     	;# 
  1938  0392                     	;# 
  1939  0393                     	;# 
  1940  0394                     	;# 
  1941  0395                     	;# 
  1942  0396                     	;# 
  1943  0397                     	;# 
  1944  0398                     	;# 
  1945  0399                     	;# 
  1946  039B                     	;# 
  1947  039C                     	;# 
  1948  039D                     	;# 
  1949  039E                     	;# 
  1950  039F                     	;# 
  1951  040E                     	;# 
  1952  0413                     	;# 
  1953  0413                     	;# 
  1954  0414                     	;# 
  1955  0414                     	;# 
  1956  0415                     	;# 
  1957  0416                     	;# 
  1958  0417                     	;# 
  1959  0418                     	;# 
  1960  041A                     	;# 
  1961  041A                     	;# 
  1962  041B                     	;# 
  1963  041B                     	;# 
  1964  041C                     	;# 
  1965  041D                     	;# 
  1966  041E                     	;# 
  1967  041F                     	;# 
  1968  0493                     	;# 
  1969  0493                     	;# 
  1970  0494                     	;# 
  1971  0495                     	;# 
  1972  0496                     	;# 
  1973  049A                     	;# 
  1974  049A                     	;# 
  1975  049B                     	;# 
  1976  049C                     	;# 
  1977  049D                     	;# 
  1978  050F                     	;# 
  1979  0510                     	;# 
  1980  0511                     	;# 
  1981  0512                     	;# 
  1982  0513                     	;# 
  1983  0514                     	;# 
  1984  0515                     	;# 
  1985  0516                     	;# 
  1986  0590                     	;# 
  1987  0591                     	;# 
  1988  0592                     	;# 
  1989  0592                     	;# 
  1990  0592                     	;# 
  1991  0593                     	;# 
  1992  0593                     	;# 
  1993  0594                     	;# 
  1994  0595                     	;# 
  1995  0595                     	;# 
  1996  0595                     	;# 
  1997  0596                     	;# 
  1998  0596                     	;# 
  1999  0597                     	;# 
  2000  0598                     	;# 
  2001  0598                     	;# 
  2002  0599                     	;# 
  2003  059A                     	;# 
  2004  059A                     	;# 
  2005  0617                     	;# 
  2006  0617                     	;# 
  2007  0618                     	;# 
  2008  0619                     	;# 
  2009  061A                     	;# 
  2010  061A                     	;# 
  2011  061B                     	;# 
  2012  061C                     	;# 
  2013  068D                     	;# 
  2014  068E                     	;# 
  2015  068F                     	;# 
  2016  0690                     	;# 
  2017  0691                     	;# 
  2018  0692                     	;# 
  2019  0693                     	;# 
  2020  0694                     	;# 
  2021  0695                     	;# 
  2022  0696                     	;# 
  2023  0697                     	;# 
  2024  0698                     	;# 
  2025  0699                     	;# 
  2026  069A                     	;# 
  2027  069B                     	;# 
  2028  069C                     	;# 
  2029  069D                     	;# 
  2030  069E                     	;# 
  2031  069F                     	;# 
  2032  070D                     	;# 
  2033  070E                     	;# 
  2034  070F                     	;# 
  2035  0710                     	;# 
  2036  0711                     	;# 
  2037  0712                     	;# 
  2038  0713                     	;# 
  2039  0714                     	;# 
  2040  0715                     	;# 
  2041  0716                     	;# 
  2042  0717                     	;# 
  2043  0718                     	;# 
  2044  0719                     	;# 
  2045  071A                     	;# 
  2046  071B                     	;# 
  2047  071C                     	;# 
  2048  071D                     	;# 
  2049  071E                     	;# 
  2050  071F                     	;# 
  2051  0794                     	;# 
  2052  0795                     	;# 
  2053  0796                     	;# 
  2054  0797                     	;# 
  2055  0798                     	;# 
  2056  0799                     	;# 
  2057  079A                     	;# 
  2058  079B                     	;# 
  2059  079C                     	;# 
  2060  079D                     	;# 
  2061  079E                     	;# 
  2062  079F                     	;# 
  2063  0D8E                     	;# 
  2064  0D8F                     	;# 
  2065  0D90                     	;# 
  2066  0D91                     	;# 
  2067  0D91                     	;# 
  2068  0D92                     	;# 
  2069  0D93                     	;# 
  2070  0D93                     	;# 
  2071  0D94                     	;# 
  2072  0D95                     	;# 
  2073  0D95                     	;# 
  2074  0D96                     	;# 
  2075  0D97                     	;# 
  2076  0D97                     	;# 
  2077  0D98                     	;# 
  2078  0D99                     	;# 
  2079  0D99                     	;# 
  2080  0D9A                     	;# 
  2081  0D9B                     	;# 
  2082  0D9C                     	;# 
  2083  0D9C                     	;# 
  2084  0D9D                     	;# 
  2085  0D9D                     	;# 
  2086  0D9E                     	;# 
  2087  0D9F                     	;# 
  2088  0DA0                     	;# 
  2089  0DA1                     	;# 
  2090  0DA1                     	;# 
  2091  0DA2                     	;# 
  2092  0DA3                     	;# 
  2093  0DA3                     	;# 
  2094  0DA4                     	;# 
  2095  0DA5                     	;# 
  2096  0DA5                     	;# 
  2097  0DA6                     	;# 
  2098  0DA7                     	;# 
  2099  0DA7                     	;# 
  2100  0DA8                     	;# 
  2101  0DA9                     	;# 
  2102  0DA9                     	;# 
  2103  0DAA                     	;# 
  2104  0DAB                     	;# 
  2105  0DAC                     	;# 
  2106  0DAC                     	;# 
  2107  0DAD                     	;# 
  2108  0DAD                     	;# 
  2109  0DAE                     	;# 
  2110  0DAF                     	;# 
  2111  0DB0                     	;# 
  2112  0E0F                     	;# 
  2113  0E10                     	;# 
  2114  0E11                     	;# 
  2115  0E12                     	;# 
  2116  0E13                     	;# 
  2117  0E14                     	;# 
  2118  0E15                     	;# 
  2119  0E16                     	;# 
  2120  0E17                     	;# 
  2121  0E19                     	;# 
  2122  0E19                     	;# 
  2123  0E19                     	;# 
  2124  0E1A                     	;# 
  2125  0E1B                     	;# 
  2126  0E1C                     	;# 
  2127  0E1C                     	;# 
  2128  0E1C                     	;# 
  2129  0E1D                     	;# 
  2130  0E1E                     	;# 
  2131  0E1F                     	;# 
  2132  0E1F                     	;# 
  2133  0E1F                     	;# 
  2134  0E20                     	;# 
  2135  0E21                     	;# 
  2136  0E22                     	;# 
  2137  0E24                     	;# 
  2138  0E25                     	;# 
  2139  0E28                     	;# 
  2140  0E29                     	;# 
  2141  0E2A                     	;# 
  2142  0E2B                     	;# 
  2143  0E2C                     	;# 
  2144  0E2D                     	;# 
  2145  0E2E                     	;# 
  2146  0E2F                     	;# 
  2147  0E30                     	;# 
  2148  0E31                     	;# 
  2149  0E32                     	;# 
  2150  0E33                     	;# 
  2151  0E34                     	;# 
  2152  0E35                     	;# 
  2153  0E90                     	;# 
  2154  0E91                     	;# 
  2155  0E92                     	;# 
  2156  0E94                     	;# 
  2157  0E95                     	;# 
  2158  0E9C                     	;# 
  2159  0E9D                     	;# 
  2160  0E9E                     	;# 
  2161  0E9F                     	;# 
  2162  0EA0                     	;# 
  2163  0EA1                     	;# 
  2164  0EA2                     	;# 
  2165  0EA3                     	;# 
  2166  0EA4                     	;# 
  2167  0EA5                     	;# 
  2168  0EA6                     	;# 
  2169  0EA7                     	;# 
  2170  0F0F                     	;# 
  2171  0F10                     	;# 
  2172  0F11                     	;# 
  2173  0F12                     	;# 
  2174  0F13                     	;# 
  2175  0F14                     	;# 
  2176  0F15                     	;# 
  2177  0F16                     	;# 
  2178  0F17                     	;# 
  2179  0F18                     	;# 
  2180  0F19                     	;# 
  2181  0F1A                     	;# 
  2182  0F1B                     	;# 
  2183  0F1C                     	;# 
  2184  0F1D                     	;# 
  2185  0F1E                     	;# 
  2186  0F1F                     	;# 
  2187  0F20                     	;# 
  2188  0F21                     	;# 
  2189  0F22                     	;# 
  2190  0F23                     	;# 
  2191  0F24                     	;# 
  2192  0F25                     	;# 
  2193  0F26                     	;# 
  2194  0F27                     	;# 
  2195  0F28                     	;# 
  2196  0F29                     	;# 
  2197  0F2A                     	;# 
  2198  0F2B                     	;# 
  2199  0F2C                     	;# 
  2200  0F2D                     	;# 
  2201  0FE4                     	;# 
  2202  0FE5                     	;# 
  2203  0FE6                     	;# 
  2204  0FE7                     	;# 
  2205  0FE8                     	;# 
  2206  0FE9                     	;# 
  2207  0FEA                     	;# 
  2208  0FEB                     	;# 
  2209  0FED                     	;# 
  2210  0FEE                     	;# 
  2211  0FEF                     	;# 
  2212                           
  2213 ;; Function _EUSART_DefaultFramingErrorHandler is unused but had its address taken
  2214  0000                     
  2215 ;; Function _EUSART_DefaultOverrunErrorHandler is unused but had its address taken
  2216  0000                     
  2217 ;; Function _EUSART_DefaultErrorHandler is unused but had its address taken
  2218  0000                     
  2219                           	psect	nvCOMMON
  2220  0070                     __pnvCOMMON:
  2221  0070                     _EUSART_ErrorHandler:
  2222  0070                     	ds	2
  2223  0072                     _EUSART_OverrunErrorHandler:
  2224  0072                     	ds	2
  2225  0074                     _EUSART_FramingErrorHandler:
  2226  0074                     	ds	2
  2227  0011                     _PIR1bits	set	17
  2228  0097                     _WDTCON	set	151
  2229  0098                     _OSCTUNE	set	152
  2230  009A                     _OSCSTAT	set	154
  2231  0099                     _OSCCON	set	153
  2232  0095                     _OPTION_REGbits	set	149
  2233  008E                     _TRISC	set	142
  2234  008D                     _TRISB	set	141
  2235  008C                     _TRISA	set	140
  2236  010D                     _LATBbits	set	269
  2237  010E                     _LATCbits	set	270
  2238  010C                     _LATAbits	set	268
  2239  010E                     _LATC	set	270
  2240  010D                     _LATB	set	269
  2241  010C                     _LATA	set	268
  2242  018C                     _ANSELA	set	396
  2243  018D                     _ANSELB	set	397
  2244  018E                     _ANSELC	set	398
  2245  019A                     _TX1REG	set	410
  2246  0199                     _RC1REG	set	409
  2247  019D                     _RC1STAbits	set	413
  2248  019E                     _TX1STAbits	set	414
  2249  019C                     _SPBRGH	set	412
  2250  019B                     _SPBRGL	set	411
  2251  019E                     _TX1STA	set	414
  2252  019D                     _RC1STA	set	413
  2253  019F                     _BAUD1CON	set	415
  2254  021D                     _BORCON	set	541
  2255  020E                     _WPUC	set	526
  2256  020C                     _WPUA	set	524
  2257  020D                     _WPUB	set	525
  2258  028E                     _ODCONC	set	654
  2259  028D                     _ODCONB	set	653
  2260  028C                     _ODCONA	set	652
  2261  030E                     _SLRCONC	set	782
  2262  030D                     _SLRCONB	set	781
  2263  030C                     _SLRCONA	set	780
  2264  038E                     _INLVLC	set	910
  2265  038D                     _INLVLB	set	909
  2266  038C                     _INLVLA	set	908
  2267  0E24                     _RXPPS	set	3620
  2268  0E9C                     _RB4PPS	set	3740
  2269                           
  2270                           	psect	cinit
  2271  07FC                     start_initialization:	
  2272                           ; #config settings
  2273                           
  2274  07FC                     __initialization:
  2275                           
  2276                           ; Clear objects allocated to COMMON
  2277  07FC  01FA               	clrf	__pbssCOMMON& (0+127)
  2278  07FD                     end_of_initialization:	
  2279                           ;End of C runtime variable initialization code
  2280                           
  2281  07FD                     __end_of__initialization:
  2282  07FD  0020               	movlb	0
  2283  07FE  3187  2F92         	ljmp	_main	;jump to C main() function
  2284                           
  2285                           	psect	bssCOMMON
  2286  007A                     __pbssCOMMON:
  2287  007A                     _eusartRxLastError:
  2288  007A                     	ds	1
  2289                           
  2290                           	psect	cstackCOMMON
  2291  0076                     __pcstackCOMMON:
  2292  0076                     ?_EUSART_SetFramingErrorHandler:
  2293  0076                     ?_EUSART_SetOverrunErrorHandler:	
  2294                           ; 1 bytes @ 0x0
  2295                           
  2296  0076                     ?_EUSART_SetErrorHandler:	
  2297                           ; 1 bytes @ 0x0
  2298                           
  2299  0076                     ?_OSCILLATOR_Initialize:	
  2300                           ; 1 bytes @ 0x0
  2301                           
  2302  0076                     ??_OSCILLATOR_Initialize:	
  2303                           ; 1 bytes @ 0x0
  2304                           
  2305  0076                     ?_WDT_Initialize:	
  2306                           ; 1 bytes @ 0x0
  2307                           
  2308  0076                     ??_WDT_Initialize:	
  2309                           ; 1 bytes @ 0x0
  2310                           
  2311  0076                     ?_EUSART_Initialize:	
  2312                           ; 1 bytes @ 0x0
  2313                           
  2314  0076                     ?_EUSART_is_rx_ready:	
  2315                           ; 1 bytes @ 0x0
  2316                           
  2317  0076                     ??_EUSART_is_rx_ready:	
  2318                           ; 1 bytes @ 0x0
  2319                           
  2320  0076                     ?_EUSART_Read:	
  2321                           ; 1 bytes @ 0x0
  2322                           
  2323  0076                     ??_EUSART_Read:	
  2324                           ; 1 bytes @ 0x0
  2325                           
  2326  0076                     ?_EUSART_Write:	
  2327                           ; 1 bytes @ 0x0
  2328                           
  2329  0076                     ??_EUSART_Write:	
  2330                           ; 1 bytes @ 0x0
  2331                           
  2332  0076                     ?_PIN_MANAGER_Initialize:	
  2333                           ; 1 bytes @ 0x0
  2334                           
  2335  0076                     ??_PIN_MANAGER_Initialize:	
  2336                           ; 1 bytes @ 0x0
  2337                           
  2338  0076                     ?_SYSTEM_Initialize:	
  2339                           ; 1 bytes @ 0x0
  2340                           
  2341  0076                     ?_main:	
  2342                           ; 1 bytes @ 0x0
  2343                           
  2344  0076                     EUSART_Write@txData:	
  2345                           ; 1 bytes @ 0x0
  2346                           
  2347  0076                     EUSART_SetFramingErrorHandler@interruptHandler:	
  2348                           ; 1 bytes @ 0x0
  2349                           
  2350  0076                     EUSART_SetOverrunErrorHandler@interruptHandler:	
  2351                           ; 2 bytes @ 0x0
  2352                           
  2353  0076                     EUSART_SetErrorHandler@interruptHandler:	
  2354                           ; 2 bytes @ 0x0
  2355                           
  2356                           
  2357                           ; 2 bytes @ 0x0
  2358  0076                     	ds	2
  2359  0078                     ??_EUSART_SetFramingErrorHandler:
  2360  0078                     ??_EUSART_SetOverrunErrorHandler:	
  2361                           ; 1 bytes @ 0x2
  2362                           
  2363  0078                     ??_EUSART_SetErrorHandler:	
  2364                           ; 1 bytes @ 0x2
  2365                           
  2366  0078                     ??_EUSART_Initialize:	
  2367                           ; 1 bytes @ 0x2
  2368                           
  2369  0078                     ??_SYSTEM_Initialize:	
  2370                           ; 1 bytes @ 0x2
  2371                           
  2372  0078                     ??_main:	
  2373                           ; 1 bytes @ 0x2
  2374                           
  2375                           
  2376                           ; 1 bytes @ 0x2
  2377  0078                     	ds	1
  2378  0079                     main@data:
  2379                           
  2380                           ; 1 bytes @ 0x3
  2381  0079                     	ds	1
  2382                           
  2383                           	psect	maintext
  2384  0792                     __pmaintext:	
  2385 ;;
  2386 ;;Main: autosize = 0, tempsize = 1, incstack = 0, save=0
  2387 ;;
  2388 ;; *************** function _main *****************
  2389 ;; Defined at:
  2390 ;;		line 325 in file "main.c"
  2391 ;; Parameters:    Size  Location     Type
  2392 ;;		None
  2393 ;; Auto vars:     Size  Location     Type
  2394 ;;  data            1    3[COMMON] unsigned char 
  2395 ;; Return value:  Size  Location     Type
  2396 ;;                  1    wreg      void 
  2397 ;; Registers used:
  2398 ;;		wreg, status,2, status,0, pclath, cstack
  2399 ;; Tracked objects:
  2400 ;;		On entry : B1F/0
  2401 ;;		On exit  : 0/0
  2402 ;;		Unchanged: 0/0
  2403 ;; Data sizes:     COMMON   BANK0   BANK1   BANK2   BANK3   BANK4   BANK5   BANK6   BANK7   BANK8   BANK9  BANK10  BANK1
      +1  BANK12
  2404 ;;      Params:         0       0       0       0       0       0       0       0       0       0       0       0       
      +0       0
  2405 ;;      Locals:         1       0       0       0       0       0       0       0       0       0       0       0       
      +0       0
  2406 ;;      Temps:          1       0       0       0       0       0       0       0       0       0       0       0       
      +0       0
  2407 ;;      Totals:         2       0       0       0       0       0       0       0       0       0       0       0       
      +0       0
  2408 ;;Total ram usage:        2 bytes
  2409 ;; Hardware stack levels required when called: 3
  2410 ;; This function calls:
  2411 ;;		_EUSART_Read
  2412 ;;		_EUSART_Write
  2413 ;;		_EUSART_is_rx_ready
  2414 ;;		_SYSTEM_Initialize
  2415 ;; This function is called by:
  2416 ;;		Startup code after reset
  2417 ;; This function uses a non-reentrant model
  2418 ;;
  2419                           
  2420                           
  2421                           ;psect for function _main
  2422  0792                     _main:
  2423  0792                     l1527:	
  2424                           ;incstack = 0
  2425                           ; Regs used in _main: [wreg+status,2+status,0+pclath+cstack]
  2426                           
  2427                           
  2428                           ;main.c: 328:     SYSTEM_Initialize();
  2429  0792  3187  2776  3187   	fcall	_SYSTEM_Initialize
  2430  0795                     l470:	
  2431                           ;main.c: 345:     while (1)
  2432                           
  2433                           
  2434                           ;main.c: 346:     {;main.c: 347:       if(EUSART_is_rx_ready()){
  2435  0795  3187  2750  3187   	fcall	_EUSART_is_rx_ready
  2436  0798  3A00               	xorlw	0
  2437  0799  1903               	skipnz
  2438  079A  2F9C               	goto	u511
  2439  079B  2F9D               	goto	u510
  2440  079C                     u511:
  2441  079C  2F95               	goto	l470
  2442  079D                     u510:
  2443  079D                     l1529:
  2444                           
  2445                           ;main.c: 348:         uint8_t data = EUSART_Read();
  2446  079D  3187  2783  3187   	fcall	_EUSART_Read
  2447  07A0  00F8               	movwf	??_main
  2448  07A1  0878               	movf	??_main,w
  2449  07A2  00F9               	movwf	main@data
  2450  07A3                     l1531:
  2451                           
  2452                           ;main.c: 349:         EUSART_Write(data);
  2453  07A3  0879               	movf	main@data,w
  2454  07A4  3187  276C  3187   	fcall	_EUSART_Write
  2455  07A7  2F95               	goto	l470
  2456  07A8  3180  2802         	ljmp	start
  2457  07AA                     __end_of_main:
  2458                           
  2459                           	psect	text1
  2460  0776                     __ptext1:	
  2461 ;; *************** function _SYSTEM_Initialize *****************
  2462 ;; Defined at:
  2463 ;;		line 50 in file "mcc_generated_files/mcc.c"
  2464 ;; Parameters:    Size  Location     Type
  2465 ;;		None
  2466 ;; Auto vars:     Size  Location     Type
  2467 ;;		None
  2468 ;; Return value:  Size  Location     Type
  2469 ;;                  1    wreg      void 
  2470 ;; Registers used:
  2471 ;;		wreg, status,2, status,0, pclath, cstack
  2472 ;; Tracked objects:
  2473 ;;		On entry : 0/0
  2474 ;;		On exit  : 0/0
  2475 ;;		Unchanged: 0/0
  2476 ;; Data sizes:     COMMON   BANK0   BANK1   BANK2   BANK3   BANK4   BANK5   BANK6   BANK7   BANK8   BANK9  BANK10  BANK1
      +1  BANK12
  2477 ;;      Params:         0       0       0       0       0       0       0       0       0       0       0       0       
      +0       0
  2478 ;;      Locals:         0       0       0       0       0       0       0       0       0       0       0       0       
      +0       0
  2479 ;;      Temps:          0       0       0       0       0       0       0       0       0       0       0       0       
      +0       0
  2480 ;;      Totals:         0       0       0       0       0       0       0       0       0       0       0       0       
      +0       0
  2481 ;;Total ram usage:        0 bytes
  2482 ;; Hardware stack levels used: 1
  2483 ;; Hardware stack levels required when called: 2
  2484 ;; This function calls:
  2485 ;;		_EUSART_Initialize
  2486 ;;		_OSCILLATOR_Initialize
  2487 ;;		_PIN_MANAGER_Initialize
  2488 ;;		_WDT_Initialize
  2489 ;; This function is called by:
  2490 ;;		_main
  2491 ;; This function uses a non-reentrant model
  2492 ;;
  2493                           
  2494                           
  2495                           ;psect for function _SYSTEM_Initialize
  2496  0776                     _SYSTEM_Initialize:
  2497  0776                     l1525:	
  2498                           ;incstack = 0
  2499                           ; Regs used in _SYSTEM_Initialize: [wreg+status,2+status,0+pclath+cstack]
  2500                           
  2501                           
  2502                           ;mcc_generated_files/mcc.c: 53:     PIN_MANAGER_Initialize();
  2503  0776  3187  27CB  3187   	fcall	_PIN_MANAGER_Initialize
  2504                           
  2505                           ;mcc_generated_files/mcc.c: 54:     OSCILLATOR_Initialize();
  2506  0779  3187  2764  3187   	fcall	_OSCILLATOR_Initialize
  2507                           
  2508                           ;mcc_generated_files/mcc.c: 55:     WDT_Initialize();
  2509  077C  3187  274C  3187   	fcall	_WDT_Initialize
  2510                           
  2511                           ;mcc_generated_files/mcc.c: 56:     EUSART_Initialize();
  2512  077F  3187  27AA  3187   	fcall	_EUSART_Initialize
  2513  0782                     l163:
  2514  0782  0008               	return
  2515  0783                     __end_of_SYSTEM_Initialize:
  2516                           
  2517                           	psect	text2
  2518  074C                     __ptext2:	
  2519 ;; *************** function _WDT_Initialize *****************
  2520 ;; Defined at:
  2521 ;;		line 71 in file "mcc_generated_files/mcc.c"
  2522 ;; Parameters:    Size  Location     Type
  2523 ;;		None
  2524 ;; Auto vars:     Size  Location     Type
  2525 ;;		None
  2526 ;; Return value:  Size  Location     Type
  2527 ;;                  1    wreg      void 
  2528 ;; Registers used:
  2529 ;;		wreg
  2530 ;; Tracked objects:
  2531 ;;		On entry : 0/0
  2532 ;;		On exit  : 0/0
  2533 ;;		Unchanged: 0/0
  2534 ;; Data sizes:     COMMON   BANK0   BANK1   BANK2   BANK3   BANK4   BANK5   BANK6   BANK7   BANK8   BANK9  BANK10  BANK1
      +1  BANK12
  2535 ;;      Params:         0       0       0       0       0       0       0       0       0       0       0       0       
      +0       0
  2536 ;;      Locals:         0       0       0       0       0       0       0       0       0       0       0       0       
      +0       0
  2537 ;;      Temps:          0       0       0       0       0       0       0       0       0       0       0       0       
      +0       0
  2538 ;;      Totals:         0       0       0       0       0       0       0       0       0       0       0       0       
      +0       0
  2539 ;;Total ram usage:        0 bytes
  2540 ;; Hardware stack levels used: 1
  2541 ;; This function calls:
  2542 ;;		Nothing
  2543 ;; This function is called by:
  2544 ;;		_SYSTEM_Initialize
  2545 ;; This function uses a non-reentrant model
  2546 ;;
  2547                           
  2548                           
  2549                           ;psect for function _WDT_Initialize
  2550  074C                     _WDT_Initialize:
  2551  074C                     l1075:	
  2552                           ;incstack = 0
  2553                           ; Regs used in _WDT_Initialize: [wreg]
  2554                           
  2555                           
  2556                           ;mcc_generated_files/mcc.c: 74:     WDTCON = 0x16;
  2557  074C  3016               	movlw	22
  2558  074D  0021               	movlb	1	; select bank1
  2559  074E  0097               	movwf	23	;volatile
  2560  074F                     l169:
  2561  074F  0008               	return
  2562  0750                     __end_of_WDT_Initialize:
  2563                           
  2564                           	psect	text3
  2565  07CB                     __ptext3:	
  2566 ;; *************** function _PIN_MANAGER_Initialize *****************
  2567 ;; Defined at:
  2568 ;;		line 55 in file "mcc_generated_files/pin_manager.c"
  2569 ;; Parameters:    Size  Location     Type
  2570 ;;		None
  2571 ;; Auto vars:     Size  Location     Type
  2572 ;;		None
  2573 ;; Return value:  Size  Location     Type
  2574 ;;                  1    wreg      void 
  2575 ;; Registers used:
  2576 ;;		wreg, status,2
  2577 ;; Tracked objects:
  2578 ;;		On entry : 0/0
  2579 ;;		On exit  : 0/0
  2580 ;;		Unchanged: 0/0
  2581 ;; Data sizes:     COMMON   BANK0   BANK1   BANK2   BANK3   BANK4   BANK5   BANK6   BANK7   BANK8   BANK9  BANK10  BANK1
      +1  BANK12
  2582 ;;      Params:         0       0       0       0       0       0       0       0       0       0       0       0       
      +0       0
  2583 ;;      Locals:         0       0       0       0       0       0       0       0       0       0       0       0       
      +0       0
  2584 ;;      Temps:          0       0       0       0       0       0       0       0       0       0       0       0       
      +0       0
  2585 ;;      Totals:         0       0       0       0       0       0       0       0       0       0       0       0       
      +0       0
  2586 ;;Total ram usage:        0 bytes
  2587 ;; Hardware stack levels used: 1
  2588 ;; This function calls:
  2589 ;;		Nothing
  2590 ;; This function is called by:
  2591 ;;		_SYSTEM_Initialize
  2592 ;; This function uses a non-reentrant model
  2593 ;;
  2594                           
  2595                           
  2596                           ;psect for function _PIN_MANAGER_Initialize
  2597  07CB                     _PIN_MANAGER_Initialize:
  2598  07CB                     l1035:	
  2599                           ;incstack = 0
  2600                           ; Regs used in _PIN_MANAGER_Initialize: [wreg+status,2]
  2601                           
  2602                           
  2603                           ;mcc_generated_files/pin_manager.c: 60:     LATA = 0x00;
  2604  07CB  0022               	movlb	2	; select bank2
  2605  07CC  018C               	clrf	12	;volatile
  2606                           
  2607                           ;mcc_generated_files/pin_manager.c: 61:     LATB = 0x00;
  2608  07CD  018D               	clrf	13	;volatile
  2609                           
  2610                           ;mcc_generated_files/pin_manager.c: 62:     LATC = 0x00;
  2611  07CE  018E               	clrf	14	;volatile
  2612  07CF                     l1037:
  2613                           
  2614                           ;mcc_generated_files/pin_manager.c: 67:     TRISA = 0x07;
  2615  07CF  3007               	movlw	7
  2616  07D0  0021               	movlb	1	; select bank1
  2617  07D1  008C               	movwf	12	;volatile
  2618  07D2                     l1039:
  2619                           
  2620                           ;mcc_generated_files/pin_manager.c: 68:     TRISB = 0x20;
  2621  07D2  3020               	movlw	32
  2622  07D3  008D               	movwf	13	;volatile
  2623  07D4                     l1041:
  2624                           
  2625                           ;mcc_generated_files/pin_manager.c: 69:     TRISC = 0x01;
  2626  07D4  3001               	movlw	1
  2627  07D5  008E               	movwf	14	;volatile
  2628  07D6                     l1043:
  2629                           
  2630                           ;mcc_generated_files/pin_manager.c: 74:     ANSELC = 0xCF;
  2631  07D6  30CF               	movlw	207
  2632  07D7  0023               	movlb	3	; select bank3
  2633  07D8  008E               	movwf	14	;volatile
  2634  07D9                     l1045:
  2635                           
  2636                           ;mcc_generated_files/pin_manager.c: 75:     ANSELB = 0xC0;
  2637  07D9  30C0               	movlw	192
  2638  07DA  008D               	movwf	13	;volatile
  2639  07DB                     l1047:
  2640                           
  2641                           ;mcc_generated_files/pin_manager.c: 76:     ANSELA = 0x17;
  2642  07DB  3017               	movlw	23
  2643  07DC  008C               	movwf	12	;volatile
  2644                           
  2645                           ;mcc_generated_files/pin_manager.c: 81:     WPUB = 0x00;
  2646  07DD  0024               	movlb	4	; select bank4
  2647  07DE  018D               	clrf	13	;volatile
  2648                           
  2649                           ;mcc_generated_files/pin_manager.c: 82:     WPUA = 0x00;
  2650  07DF  018C               	clrf	12	;volatile
  2651                           
  2652                           ;mcc_generated_files/pin_manager.c: 83:     WPUC = 0x00;
  2653  07E0  018E               	clrf	14	;volatile
  2654  07E1                     l1049:
  2655                           
  2656                           ;mcc_generated_files/pin_manager.c: 84:     OPTION_REGbits.nWPUEN = 1;
  2657  07E1  0021               	movlb	1	; select bank1
  2658  07E2  1795               	bsf	21,7	;volatile
  2659                           
  2660                           ;mcc_generated_files/pin_manager.c: 89:     ODCONA = 0x00;
  2661  07E3  0025               	movlb	5	; select bank5
  2662  07E4  018C               	clrf	12	;volatile
  2663                           
  2664                           ;mcc_generated_files/pin_manager.c: 90:     ODCONB = 0x00;
  2665  07E5  018D               	clrf	13	;volatile
  2666                           
  2667                           ;mcc_generated_files/pin_manager.c: 91:     ODCONC = 0x00;
  2668  07E6  018E               	clrf	14	;volatile
  2669  07E7                     l1051:
  2670                           
  2671                           ;mcc_generated_files/pin_manager.c: 96:     SLRCONA = 0x37;
  2672  07E7  3037               	movlw	55
  2673  07E8  0026               	movlb	6	; select bank6
  2674  07E9  008C               	movwf	12	;volatile
  2675  07EA                     l1053:
  2676                           
  2677                           ;mcc_generated_files/pin_manager.c: 97:     SLRCONB = 0xF0;
  2678  07EA  30F0               	movlw	240
  2679  07EB  008D               	movwf	13	;volatile
  2680  07EC                     l1055:
  2681                           
  2682                           ;mcc_generated_files/pin_manager.c: 98:     SLRCONC = 0xFF;
  2683  07EC  30FF               	movlw	255
  2684  07ED  008E               	movwf	14	;volatile
  2685  07EE                     l1057:
  2686                           
  2687                           ;mcc_generated_files/pin_manager.c: 103:     INLVLA = 0x3F;
  2688  07EE  303F               	movlw	63
  2689  07EF  0027               	movlb	7	; select bank7
  2690  07F0  008C               	movwf	12	;volatile
  2691  07F1                     l1059:
  2692                           
  2693                           ;mcc_generated_files/pin_manager.c: 104:     INLVLB = 0xF0;
  2694  07F1  30F0               	movlw	240
  2695  07F2  008D               	movwf	13	;volatile
  2696  07F3                     l1061:
  2697                           
  2698                           ;mcc_generated_files/pin_manager.c: 105:     INLVLC = 0xFF;
  2699  07F3  30FF               	movlw	255
  2700  07F4  008E               	movwf	14	;volatile
  2701  07F5                     l1063:
  2702                           
  2703                           ;mcc_generated_files/pin_manager.c: 115:     RXPPS = 0x0D;
  2704  07F5  300D               	movlw	13
  2705  07F6  003C               	movlb	28	; select bank28
  2706  07F7  00A4               	movwf	36	;volatile
  2707  07F8                     l1065:
  2708                           
  2709                           ;mcc_generated_files/pin_manager.c: 117:     RB4PPS = 0x16;
  2710  07F8  3016               	movlw	22
  2711  07F9  003D               	movlb	29	; select bank29
  2712  07FA  009C               	movwf	28	;volatile
  2713  07FB                     l139:
  2714  07FB  0008               	return
  2715  07FC                     __end_of_PIN_MANAGER_Initialize:
  2716                           
  2717                           	psect	text4
  2718  0764                     __ptext4:	
  2719 ;; *************** function _OSCILLATOR_Initialize *****************
  2720 ;; Defined at:
  2721 ;;		line 59 in file "mcc_generated_files/mcc.c"
  2722 ;; Parameters:    Size  Location     Type
  2723 ;;		None
  2724 ;; Auto vars:     Size  Location     Type
  2725 ;;		None
  2726 ;; Return value:  Size  Location     Type
  2727 ;;                  1    wreg      void 
  2728 ;; Registers used:
  2729 ;;		wreg, status,2
  2730 ;; Tracked objects:
  2731 ;;		On entry : 0/0
  2732 ;;		On exit  : 0/0
  2733 ;;		Unchanged: 0/0
  2734 ;; Data sizes:     COMMON   BANK0   BANK1   BANK2   BANK3   BANK4   BANK5   BANK6   BANK7   BANK8   BANK9  BANK10  BANK1
      +1  BANK12
  2735 ;;      Params:         0       0       0       0       0       0       0       0       0       0       0       0       
      +0       0
  2736 ;;      Locals:         0       0       0       0       0       0       0       0       0       0       0       0       
      +0       0
  2737 ;;      Temps:          0       0       0       0       0       0       0       0       0       0       0       0       
      +0       0
  2738 ;;      Totals:         0       0       0       0       0       0       0       0       0       0       0       0       
      +0       0
  2739 ;;Total ram usage:        0 bytes
  2740 ;; Hardware stack levels used: 1
  2741 ;; This function calls:
  2742 ;;		Nothing
  2743 ;; This function is called by:
  2744 ;;		_SYSTEM_Initialize
  2745 ;; This function uses a non-reentrant model
  2746 ;;
  2747                           
  2748                           
  2749                           ;psect for function _OSCILLATOR_Initialize
  2750  0764                     _OSCILLATOR_Initialize:
  2751  0764                     l1067:	
  2752                           ;incstack = 0
  2753                           ; Regs used in _OSCILLATOR_Initialize: [wreg+status,2]
  2754                           
  2755                           
  2756                           ;mcc_generated_files/mcc.c: 62:     OSCCON = 0x38;
  2757  0764  3038               	movlw	56
  2758  0765  0021               	movlb	1	; select bank1
  2759  0766  0099               	movwf	25	;volatile
  2760  0767                     l1069:
  2761                           
  2762                           ;mcc_generated_files/mcc.c: 64:     OSCSTAT = 0x00;
  2763  0767  019A               	clrf	26	;volatile
  2764  0768                     l1071:
  2765                           
  2766                           ;mcc_generated_files/mcc.c: 66:     OSCTUNE = 0x00;
  2767  0768  0198               	clrf	24	;volatile
  2768  0769                     l1073:
  2769                           
  2770                           ;mcc_generated_files/mcc.c: 68:     BORCON = 0x00;
  2771  0769  0024               	movlb	4	; select bank4
  2772  076A  019D               	clrf	29	;volatile
  2773  076B                     l166:
  2774  076B  0008               	return
  2775  076C                     __end_of_OSCILLATOR_Initialize:
  2776                           
  2777                           	psect	text5
  2778  07AA                     __ptext5:	
  2779 ;; *************** function _EUSART_Initialize *****************
  2780 ;; Defined at:
  2781 ;;		line 66 in file "mcc_generated_files/eusart.c"
  2782 ;; Parameters:    Size  Location     Type
  2783 ;;		None
  2784 ;; Auto vars:     Size  Location     Type
  2785 ;;		None
  2786 ;; Return value:  Size  Location     Type
  2787 ;;                  1    wreg      void 
  2788 ;; Registers used:
  2789 ;;		wreg, status,2, status,0, pclath, cstack
  2790 ;; Tracked objects:
  2791 ;;		On entry : 0/0
  2792 ;;		On exit  : 0/0
  2793 ;;		Unchanged: 0/0
  2794 ;; Data sizes:     COMMON   BANK0   BANK1   BANK2   BANK3   BANK4   BANK5   BANK6   BANK7   BANK8   BANK9  BANK10  BANK1
      +1  BANK12
  2795 ;;      Params:         0       0       0       0       0       0       0       0       0       0       0       0       
      +0       0
  2796 ;;      Locals:         0       0       0       0       0       0       0       0       0       0       0       0       
      +0       0
  2797 ;;      Temps:          0       0       0       0       0       0       0       0       0       0       0       0       
      +0       0
  2798 ;;      Totals:         0       0       0       0       0       0       0       0       0       0       0       0       
      +0       0
  2799 ;;Total ram usage:        0 bytes
  2800 ;; Hardware stack levels used: 1
  2801 ;; Hardware stack levels required when called: 1
  2802 ;; This function calls:
  2803 ;;		_EUSART_SetErrorHandler
  2804 ;;		_EUSART_SetFramingErrorHandler
  2805 ;;		_EUSART_SetOverrunErrorHandler
  2806 ;; This function is called by:
  2807 ;;		_SYSTEM_Initialize
  2808 ;; This function uses a non-reentrant model
  2809 ;;
  2810                           
  2811                           
  2812                           ;psect for function _EUSART_Initialize
  2813  07AA                     _EUSART_Initialize:
  2814  07AA                     l1513:	
  2815                           ;incstack = 0
  2816                           ; Regs used in _EUSART_Initialize: [wreg+status,2+status,0+pclath+cstack]
  2817                           
  2818                           
  2819                           ;mcc_generated_files/eusart.c: 71:     BAUD1CON = 0x08;
  2820  07AA  3008               	movlw	8
  2821  07AB  0023               	movlb	3	; select bank3
  2822  07AC  009F               	movwf	31	;volatile
  2823                           
  2824                           ;mcc_generated_files/eusart.c: 74:     RC1STA = 0x90;
  2825  07AD  3090               	movlw	144
  2826  07AE  009D               	movwf	29	;volatile
  2827                           
  2828                           ;mcc_generated_files/eusart.c: 77:     TX1STA = 0x24;
  2829  07AF  3024               	movlw	36
  2830  07B0  009E               	movwf	30	;volatile
  2831                           
  2832                           ;mcc_generated_files/eusart.c: 80:     SPBRGL = 0x0C;
  2833  07B1  300C               	movlw	12
  2834  07B2  009B               	movwf	27	;volatile
  2835  07B3                     l1515:
  2836                           
  2837                           ;mcc_generated_files/eusart.c: 83:     SPBRGH = 0x00;
  2838  07B3  019C               	clrf	28	;volatile
  2839  07B4                     l1517:
  2840                           
  2841                           ;mcc_generated_files/eusart.c: 86:     EUSART_SetFramingErrorHandler(EUSART_DefaultFrami
      +                          ngErrorHandler);
  2842  07B4  3000               	movlw	0
  2843  07B5  00F6               	movwf	EUSART_SetFramingErrorHandler@interruptHandler
  2844  07B6  3000               	movlw	0
  2845  07B7  00F7               	movwf	EUSART_SetFramingErrorHandler@interruptHandler+1
  2846  07B8  3187  275A  3187   	fcall	_EUSART_SetFramingErrorHandler
  2847  07BB                     l1519:
  2848                           
  2849                           ;mcc_generated_files/eusart.c: 87:     EUSART_SetOverrunErrorHandler(EUSART_DefaultOverr
      +                          unErrorHandler);
  2850  07BB  3000               	movlw	0
  2851  07BC  00F6               	movwf	EUSART_SetOverrunErrorHandler@interruptHandler
  2852  07BD  3000               	movlw	0
  2853  07BE  00F7               	movwf	EUSART_SetOverrunErrorHandler@interruptHandler+1
  2854  07BF  3187  275F  3187   	fcall	_EUSART_SetOverrunErrorHandler
  2855  07C2                     l1521:
  2856                           
  2857                           ;mcc_generated_files/eusart.c: 88:     EUSART_SetErrorHandler(EUSART_DefaultErrorHandler
      +                          );
  2858  07C2  3000               	movlw	0
  2859  07C3  00F6               	movwf	EUSART_SetErrorHandler@interruptHandler
  2860  07C4  3000               	movlw	0
  2861  07C5  00F7               	movwf	EUSART_SetErrorHandler@interruptHandler+1
  2862  07C6  3187  2755  3187   	fcall	_EUSART_SetErrorHandler
  2863  07C9                     l1523:
  2864                           
  2865                           ;mcc_generated_files/eusart.c: 90:     eusartRxLastError.status = 0;
  2866  07C9  01FA               	clrf	_eusartRxLastError	;volatile
  2867  07CA                     l43:
  2868  07CA  0008               	return
  2869  07CB                     __end_of_EUSART_Initialize:
  2870                           
  2871                           	psect	text6
  2872  075F                     __ptext6:	
  2873 ;; *************** function _EUSART_SetOverrunErrorHandler *****************
  2874 ;; Defined at:
  2875 ;;		line 161 in file "mcc_generated_files/eusart.c"
  2876 ;; Parameters:    Size  Location     Type
  2877 ;;  interruptHan    2    0[COMMON] PTR FTN()void 
  2878 ;;		 -> EUSART_DefaultOverrunErrorHandler(1), 
  2879 ;; Auto vars:     Size  Location     Type
  2880 ;;		None
  2881 ;; Return value:  Size  Location     Type
  2882 ;;                  1    wreg      void 
  2883 ;; Registers used:
  2884 ;;		wreg
  2885 ;; Tracked objects:
  2886 ;;		On entry : 0/0
  2887 ;;		On exit  : 0/0
  2888 ;;		Unchanged: 0/0
  2889 ;; Data sizes:     COMMON   BANK0   BANK1   BANK2   BANK3   BANK4   BANK5   BANK6   BANK7   BANK8   BANK9  BANK10  BANK1
      +1  BANK12
  2890 ;;      Params:         2       0       0       0       0       0       0       0       0       0       0       0       
      +0       0
  2891 ;;      Locals:         0       0       0       0       0       0       0       0       0       0       0       0       
      +0       0
  2892 ;;      Temps:          0       0       0       0       0       0       0       0       0       0       0       0       
      +0       0
  2893 ;;      Totals:         2       0       0       0       0       0       0       0       0       0       0       0       
      +0       0
  2894 ;;Total ram usage:        2 bytes
  2895 ;; Hardware stack levels used: 1
  2896 ;; This function calls:
  2897 ;;		Nothing
  2898 ;; This function is called by:
  2899 ;;		_EUSART_Initialize
  2900 ;; This function uses a non-reentrant model
  2901 ;;
  2902                           
  2903                           
  2904                           ;psect for function _EUSART_SetOverrunErrorHandler
  2905  075F                     _EUSART_SetOverrunErrorHandler:
  2906  075F                     l1509:	
  2907                           ;incstack = 0
  2908                           ; Regs used in _EUSART_SetOverrunErrorHandler: [wreg]
  2909                           
  2910                           
  2911                           ;mcc_generated_files/eusart.c: 162:     EUSART_OverrunErrorHandler = interruptHandler;
  2912  075F  0877               	movf	EUSART_SetOverrunErrorHandler@interruptHandler+1,w
  2913  0760  00F3               	movwf	_EUSART_OverrunErrorHandler+1
  2914  0761  0876               	movf	EUSART_SetOverrunErrorHandler@interruptHandler,w
  2915  0762  00F2               	movwf	_EUSART_OverrunErrorHandler
  2916  0763                     l85:
  2917  0763  0008               	return
  2918  0764                     __end_of_EUSART_SetOverrunErrorHandler:
  2919                           
  2920                           	psect	text7
  2921  075A                     __ptext7:	
  2922 ;; *************** function _EUSART_SetFramingErrorHandler *****************
  2923 ;; Defined at:
  2924 ;;		line 157 in file "mcc_generated_files/eusart.c"
  2925 ;; Parameters:    Size  Location     Type
  2926 ;;  interruptHan    2    0[COMMON] PTR FTN()void 
  2927 ;;		 -> EUSART_DefaultFramingErrorHandler(1), 
  2928 ;; Auto vars:     Size  Location     Type
  2929 ;;		None
  2930 ;; Return value:  Size  Location     Type
  2931 ;;                  1    wreg      void 
  2932 ;; Registers used:
  2933 ;;		wreg
  2934 ;; Tracked objects:
  2935 ;;		On entry : 0/0
  2936 ;;		On exit  : 0/0
  2937 ;;		Unchanged: 0/0
  2938 ;; Data sizes:     COMMON   BANK0   BANK1   BANK2   BANK3   BANK4   BANK5   BANK6   BANK7   BANK8   BANK9  BANK10  BANK1
      +1  BANK12
  2939 ;;      Params:         2       0       0       0       0       0       0       0       0       0       0       0       
      +0       0
  2940 ;;      Locals:         0       0       0       0       0       0       0       0       0       0       0       0       
      +0       0
  2941 ;;      Temps:          0       0       0       0       0       0       0       0       0       0       0       0       
      +0       0
  2942 ;;      Totals:         2       0       0       0       0       0       0       0       0       0       0       0       
      +0       0
  2943 ;;Total ram usage:        2 bytes
  2944 ;; Hardware stack levels used: 1
  2945 ;; This function calls:
  2946 ;;		Nothing
  2947 ;; This function is called by:
  2948 ;;		_EUSART_Initialize
  2949 ;; This function uses a non-reentrant model
  2950 ;;
  2951                           
  2952                           
  2953                           ;psect for function _EUSART_SetFramingErrorHandler
  2954  075A                     _EUSART_SetFramingErrorHandler:
  2955  075A                     l1507:	
  2956                           ;incstack = 0
  2957                           ; Regs used in _EUSART_SetFramingErrorHandler: [wreg]
  2958                           
  2959                           
  2960                           ;mcc_generated_files/eusart.c: 158:     EUSART_FramingErrorHandler = interruptHandler;
  2961  075A  0877               	movf	EUSART_SetFramingErrorHandler@interruptHandler+1,w
  2962  075B  00F5               	movwf	_EUSART_FramingErrorHandler+1
  2963  075C  0876               	movf	EUSART_SetFramingErrorHandler@interruptHandler,w
  2964  075D  00F4               	movwf	_EUSART_FramingErrorHandler
  2965  075E                     l82:
  2966  075E  0008               	return
  2967  075F                     __end_of_EUSART_SetFramingErrorHandler:
  2968                           
  2969                           	psect	text8
  2970  0755                     __ptext8:	
  2971 ;; *************** function _EUSART_SetErrorHandler *****************
  2972 ;; Defined at:
  2973 ;;		line 165 in file "mcc_generated_files/eusart.c"
  2974 ;; Parameters:    Size  Location     Type
  2975 ;;  interruptHan    2    0[COMMON] PTR FTN()void 
  2976 ;;		 -> EUSART_DefaultErrorHandler(1), 
  2977 ;; Auto vars:     Size  Location     Type
  2978 ;;		None
  2979 ;; Return value:  Size  Location     Type
  2980 ;;                  1    wreg      void 
  2981 ;; Registers used:
  2982 ;;		wreg
  2983 ;; Tracked objects:
  2984 ;;		On entry : 0/0
  2985 ;;		On exit  : 0/0
  2986 ;;		Unchanged: 0/0
  2987 ;; Data sizes:     COMMON   BANK0   BANK1   BANK2   BANK3   BANK4   BANK5   BANK6   BANK7   BANK8   BANK9  BANK10  BANK1
      +1  BANK12
  2988 ;;      Params:         2       0       0       0       0       0       0       0       0       0       0       0       
      +0       0
  2989 ;;      Locals:         0       0       0       0       0       0       0       0       0       0       0       0       
      +0       0
  2990 ;;      Temps:          0       0       0       0       0       0       0       0       0       0       0       0       
      +0       0
  2991 ;;      Totals:         2       0       0       0       0       0       0       0       0       0       0       0       
      +0       0
  2992 ;;Total ram usage:        2 bytes
  2993 ;; Hardware stack levels used: 1
  2994 ;; This function calls:
  2995 ;;		Nothing
  2996 ;; This function is called by:
  2997 ;;		_EUSART_Initialize
  2998 ;; This function uses a non-reentrant model
  2999 ;;
  3000                           
  3001                           
  3002                           ;psect for function _EUSART_SetErrorHandler
  3003  0755                     _EUSART_SetErrorHandler:
  3004  0755                     l1511:	
  3005                           ;incstack = 0
  3006                           ; Regs used in _EUSART_SetErrorHandler: [wreg]
  3007                           
  3008                           
  3009                           ;mcc_generated_files/eusart.c: 166:     EUSART_ErrorHandler = interruptHandler;
  3010  0755  0877               	movf	EUSART_SetErrorHandler@interruptHandler+1,w
  3011  0756  00F1               	movwf	_EUSART_ErrorHandler+1
  3012  0757  0876               	movf	EUSART_SetErrorHandler@interruptHandler,w
  3013  0758  00F0               	movwf	_EUSART_ErrorHandler
  3014  0759                     l88:
  3015  0759  0008               	return
  3016  075A                     __end_of_EUSART_SetErrorHandler:
  3017                           
  3018                           	psect	text9
  3019  0750                     __ptext9:	
  3020 ;; *************** function _EUSART_is_rx_ready *****************
  3021 ;; Defined at:
  3022 ;;		line 99 in file "mcc_generated_files/eusart.c"
  3023 ;; Parameters:    Size  Location     Type
  3024 ;;		None
  3025 ;; Auto vars:     Size  Location     Type
  3026 ;;		None
  3027 ;; Return value:  Size  Location     Type
  3028 ;;                  1    wreg      _Bool 
  3029 ;; Registers used:
  3030 ;;		wreg, status,2, status,0
  3031 ;; Tracked objects:
  3032 ;;		On entry : 0/0
  3033 ;;		On exit  : 0/0
  3034 ;;		Unchanged: 0/0
  3035 ;; Data sizes:     COMMON   BANK0   BANK1   BANK2   BANK3   BANK4   BANK5   BANK6   BANK7   BANK8   BANK9  BANK10  BANK1
      +1  BANK12
  3036 ;;      Params:         0       0       0       0       0       0       0       0       0       0       0       0       
      +0       0
  3037 ;;      Locals:         0       0       0       0       0       0       0       0       0       0       0       0       
      +0       0
  3038 ;;      Temps:          0       0       0       0       0       0       0       0       0       0       0       0       
      +0       0
  3039 ;;      Totals:         0       0       0       0       0       0       0       0       0       0       0       0       
      +0       0
  3040 ;;Total ram usage:        0 bytes
  3041 ;; Hardware stack levels used: 1
  3042 ;; This function calls:
  3043 ;;		Nothing
  3044 ;; This function is called by:
  3045 ;;		_main
  3046 ;; This function uses a non-reentrant model
  3047 ;;
  3048                           
  3049                           
  3050                           ;psect for function _EUSART_is_rx_ready
  3051  0750                     _EUSART_is_rx_ready:
  3052  0750                     l1195:	
  3053                           ;incstack = 0
  3054                           ; Regs used in _EUSART_is_rx_ready: [wreg+status,2+status,0]
  3055                           
  3056                           
  3057                           ;mcc_generated_files/eusart.c: 101:     return (_Bool)(PIR1bits.RCIF);
  3058  0750  0020               	movlb	0	; select bank0
  3059  0751  0E11               	swapf	17,w	;volatile
  3060  0752  0C89               	rrf	9,f
  3061  0753  3901               	andlw	1
  3062  0754                     l51:
  3063  0754  0008               	return
  3064  0755                     __end_of_EUSART_is_rx_ready:
  3065                           
  3066                           	psect	text10
  3067  076C                     __ptext10:	
  3068 ;; *************** function _EUSART_Write *****************
  3069 ;; Defined at:
  3070 ;;		line 132 in file "mcc_generated_files/eusart.c"
  3071 ;; Parameters:    Size  Location     Type
  3072 ;;  txData          1    wreg     unsigned char 
  3073 ;; Auto vars:     Size  Location     Type
  3074 ;;  txData          1    0[COMMON] unsigned char 
  3075 ;; Return value:  Size  Location     Type
  3076 ;;                  1    wreg      void 
  3077 ;; Registers used:
  3078 ;;		wreg
  3079 ;; Tracked objects:
  3080 ;;		On entry : 0/0
  3081 ;;		On exit  : 0/0
  3082 ;;		Unchanged: 0/0
  3083 ;; Data sizes:     COMMON   BANK0   BANK1   BANK2   BANK3   BANK4   BANK5   BANK6   BANK7   BANK8   BANK9  BANK10  BANK1
      +1  BANK12
  3084 ;;      Params:         0       0       0       0       0       0       0       0       0       0       0       0       
      +0       0
  3085 ;;      Locals:         1       0       0       0       0       0       0       0       0       0       0       0       
      +0       0
  3086 ;;      Temps:          0       0       0       0       0       0       0       0       0       0       0       0       
      +0       0
  3087 ;;      Totals:         1       0       0       0       0       0       0       0       0       0       0       0       
      +0       0
  3088 ;;Total ram usage:        1 bytes
  3089 ;; Hardware stack levels used: 1
  3090 ;; This function calls:
  3091 ;;		Nothing
  3092 ;; This function is called by:
  3093 ;;		_main
  3094 ;; This function uses a non-reentrant model
  3095 ;;
  3096                           
  3097                           
  3098                           ;psect for function _EUSART_Write
  3099  076C                     _EUSART_Write:
  3100                           
  3101                           ;incstack = 0
  3102                           ; Regs used in _EUSART_Write: [wreg]
  3103                           ;EUSART_Write@txData stored from wreg
  3104  076C  00F6               	movwf	EUSART_Write@txData
  3105  076D                     l1211:
  3106  076D                     l67:	
  3107                           ;mcc_generated_files/eusart.c: 135:     {;mcc_generated_files/eusart.c: 136:     }
  3108                           
  3109                           
  3110                           ;mcc_generated_files/eusart.c: 134:     while(0 == PIR1bits.TXIF)
  3111  076D  0020               	movlb	0	; select bank0
  3112  076E  1E11               	btfss	17,4	;volatile
  3113  076F  2F71               	goto	u31
  3114  0770  2F72               	goto	u30
  3115  0771                     u31:
  3116  0771  2F6D               	goto	l67
  3117  0772                     u30:
  3118  0772                     l1213:
  3119                           
  3120                           ;mcc_generated_files/eusart.c: 138:     TX1REG = txData;
  3121  0772  0876               	movf	EUSART_Write@txData,w
  3122  0773  0023               	movlb	3	; select bank3
  3123  0774  009A               	movwf	26	;volatile
  3124  0775                     l70:
  3125  0775  0008               	return
  3126  0776                     __end_of_EUSART_Write:
  3127                           
  3128                           	psect	text11
  3129  0783                     __ptext11:	
  3130 ;; *************** function _EUSART_Read *****************
  3131 ;; Defined at:
  3132 ;;		line 113 in file "mcc_generated_files/eusart.c"
  3133 ;; Parameters:    Size  Location     Type
  3134 ;;		None
  3135 ;; Auto vars:     Size  Location     Type
  3136 ;;		None
  3137 ;; Return value:  Size  Location     Type
  3138 ;;                  1    wreg      unsigned char 
  3139 ;; Registers used:
  3140 ;;		wreg, status,2
  3141 ;; Tracked objects:
  3142 ;;		On entry : 0/0
  3143 ;;		On exit  : 0/0
  3144 ;;		Unchanged: 0/0
  3145 ;; Data sizes:     COMMON   BANK0   BANK1   BANK2   BANK3   BANK4   BANK5   BANK6   BANK7   BANK8   BANK9  BANK10  BANK1
      +1  BANK12
  3146 ;;      Params:         0       0       0       0       0       0       0       0       0       0       0       0       
      +0       0
  3147 ;;      Locals:         0       0       0       0       0       0       0       0       0       0       0       0       
      +0       0
  3148 ;;      Temps:          0       0       0       0       0       0       0       0       0       0       0       0       
      +0       0
  3149 ;;      Totals:         0       0       0       0       0       0       0       0       0       0       0       0       
      +0       0
  3150 ;;Total ram usage:        0 bytes
  3151 ;; Hardware stack levels used: 1
  3152 ;; This function calls:
  3153 ;;		Nothing
  3154 ;; This function is called by:
  3155 ;;		_main
  3156 ;; This function uses a non-reentrant model
  3157 ;;
  3158                           
  3159                           
  3160                           ;psect for function _EUSART_Read
  3161  0783                     _EUSART_Read:
  3162  0783                     l1199:	
  3163                           ;incstack = 0
  3164                           ; Regs used in _EUSART_Read: [wreg+status,2]
  3165                           
  3166  0783                     l60:	
  3167                           ;mcc_generated_files/eusart.c: 116:     {;mcc_generated_files/eusart.c: 117:     }
  3168                           
  3169                           
  3170                           ;mcc_generated_files/eusart.c: 115:     while(!PIR1bits.RCIF)
  3171  0783  0020               	movlb	0	; select bank0
  3172  0784  1E91               	btfss	17,5	;volatile
  3173  0785  2F87               	goto	u11
  3174  0786  2F88               	goto	u10
  3175  0787                     u11:
  3176  0787  2F83               	goto	l60
  3177  0788                     u10:
  3178  0788                     l1201:
  3179                           
  3180                           ;mcc_generated_files/eusart.c: 119:     eusartRxLastError.status = 0;
  3181  0788  01FA               	clrf	_eusartRxLastError	;volatile
  3182  0789                     l1203:
  3183                           
  3184                           ;mcc_generated_files/eusart.c: 121:     if(1 == RC1STAbits.OERR)
  3185  0789  0023               	movlb	3	; select bank3
  3186  078A  1C9D               	btfss	29,1	;volatile
  3187  078B  2F8D               	goto	u21
  3188  078C  2F8E               	goto	u20
  3189  078D                     u21:
  3190  078D  2F90               	goto	l1207
  3191  078E                     u20:
  3192  078E                     l1205:
  3193                           
  3194                           ;mcc_generated_files/eusart.c: 122:     {;mcc_generated_files/eusart.c: 125:         RC1
      +                          STAbits.CREN = 0;
  3195  078E  121D               	bcf	29,4	;volatile
  3196                           
  3197                           ;mcc_generated_files/eusart.c: 126:         RC1STAbits.CREN = 1;
  3198  078F  161D               	bsf	29,4	;volatile
  3199  0790                     l1207:
  3200                           
  3201                           ;mcc_generated_files/eusart.c: 129:     return RC1REG;
  3202  0790  0819               	movf	25,w	;volatile
  3203  0791                     l64:
  3204  0791  0008               	return
  3205  0792                     __end_of_EUSART_Read:
  3206  007E                     btemp	set	126	;btemp
  3207  007E                     wtemp0	set	126
  3208                           
  3209                           	psect	config
  3210                           
  3211                           ;Config register CONFIG1 @ 0x8007
  3212                           ;	Oscillator Selection Bits
  3213                           ;	FOSC = INTOSC, INTOSC oscillator: I/O function on CLKIN pin
  3214                           ;	Watchdog Timer Enable
  3215                           ;	WDTE = OFF, WDT disabled
  3216                           ;	Power-up Timer Enable
  3217                           ;	PWRTE = OFF, PWRT disabled
  3218                           ;	MCLR Pin Function Select
  3219                           ;	MCLRE = ON, MCLR/VPP pin function is MCLR
  3220                           ;	Flash Program Memory Code Protection
  3221                           ;	CP = OFF, Program memory code protection is disabled
  3222                           ;	Brown-out Reset Enable
  3223                           ;	BOREN = ON, Brown-out Reset enabled
  3224                           ;	Clock Out Enable
  3225                           ;	CLKOUTEN = OFF, CLKOUT function is disabled. I/O or oscillator function on the CLKOUT 
      +                          pin
  3226                           ;	Internal/External Switchover Mode
  3227                           ;	IESO = ON, Internal/External Switchover Mode is enabled
  3228                           ;	Fail-Safe Clock Monitor Enable
  3229                           ;	FCMEN = ON, Fail-Safe Clock Monitor is enabled
  3230  8007                     	org	32775
  3231  8007  3FE4               	dw	16356
  3232                           
  3233                           ;Config register CONFIG2 @ 0x8008
  3234                           ;	Flash Memory Self-Write Protection
  3235                           ;	WRT = OFF, Write protection off
  3236                           ;	Peripheral Pin Select one-way control
  3237                           ;	PPS1WAY = ON, The PPSLOCK bit cannot be cleared once it is set by software
  3238                           ;	Zero-cross detect disable
  3239                           ;	ZCD = OFF, Zero-cross detect circuit is disabled at POR
  3240                           ;	Phase Lock Loop enable
  3241                           ;	PLLEN = OFF, 4x PLL is enabled when software sets the SPLLEN bit
  3242                           ;	Stack Overflow/Underflow Reset Enable
  3243                           ;	STVREN = ON, Stack Overflow or Underflow will cause a Reset
  3244                           ;	Brown-out Reset Voltage Selection
  3245                           ;	BORV = LO, Brown-out Reset Voltage (Vbor), low trip point selected.
  3246                           ;	Low-Power Brown Out Reset
  3247                           ;	LPBOR = OFF, Low-Power BOR is disabled
  3248                           ;	Low-Voltage Programming Enable
  3249                           ;	LVP = ON, Low-voltage programming enabled
  3250  8008                     	org	32776
  3251  8008  3EFF               	dw	16127

Data Sizes:
    Strings     0
    Constant    0
    Data        0
    BSS         1
    Persistent  38
    Stack       0

Auto Spaces:
    Space          Size  Autos    Used
    COMMON           14      4      11
    BANK0            80      0       0
    BANK1            80      0       0
    BANK2            80      0       0
    BANK3            80      0       0
    BANK4            80      0       0
    BANK5            80      0       0
    BANK6            80      0       0
    BANK7            80      0       0
    BANK8            80      0       0
    BANK9            80      0       0
    BANK10           80      0       0
    BANK11           80      0       0
    BANK12           48      0       0

Pointer List with Targets:

    EUSART_SetErrorHandler@interruptHandler	PTR FTN()void  size(2) Largest target is 1
		 -> EUSART_DefaultErrorHandler(), 

    EUSART_ErrorHandler	PTR FTN()void  size(2) Largest target is 1
		 -> Absolute function(), EUSART_DefaultErrorHandler(), 

    EUSART_SetOverrunErrorHandler@interruptHandler	PTR FTN()void  size(2) Largest target is 1
		 -> EUSART_DefaultOverrunErrorHandler(), 

    EUSART_OverrunErrorHandler	PTR FTN()void  size(2) Largest target is 1
		 -> Absolute function(), EUSART_DefaultOverrunErrorHandler(), 

    EUSART_SetFramingErrorHandler@interruptHandler	PTR FTN()void  size(2) Largest target is 1
		 -> EUSART_DefaultFramingErrorHandler(), 

    EUSART_FramingErrorHandler	PTR FTN()void  size(2) Largest target is 1
		 -> Absolute function(), EUSART_DefaultFramingErrorHandler(), 


Critical Paths under _main in COMMON

    _EUSART_Initialize->_EUSART_SetErrorHandler
    _EUSART_Initialize->_EUSART_SetFramingErrorHandler
    _EUSART_Initialize->_EUSART_SetOverrunErrorHandler

Critical Paths under _main in BANK0

    None.

Critical Paths under _main in BANK1

    None.

Critical Paths under _main in BANK2

    None.

Critical Paths under _main in BANK3

    None.

Critical Paths under _main in BANK4

    None.

Critical Paths under _main in BANK5

    None.

Critical Paths under _main in BANK6

    None.

Critical Paths under _main in BANK7

    None.

Critical Paths under _main in BANK8

    None.

Critical Paths under _main in BANK9

    None.

Critical Paths under _main in BANK10

    None.

Critical Paths under _main in BANK11

    None.

Critical Paths under _main in BANK12

    None.

Call Graph Tables:

 ---------------------------------------------------------------------------------
 (Depth) Function   	        Calls       Base Space   Used Autos Params    Refs
 ---------------------------------------------------------------------------------
 (0) _main                                                 2     2      0     332
                                              2 COMMON     2     2      0
                        _EUSART_Read
                       _EUSART_Write
                 _EUSART_is_rx_ready
                  _SYSTEM_Initialize
 ---------------------------------------------------------------------------------
 (1) _SYSTEM_Initialize                                    0     0      0     294
                  _EUSART_Initialize
              _OSCILLATOR_Initialize
             _PIN_MANAGER_Initialize
                     _WDT_Initialize
 ---------------------------------------------------------------------------------
 (2) _WDT_Initialize                                       0     0      0       0
 ---------------------------------------------------------------------------------
 (2) _PIN_MANAGER_Initialize                               0     0      0       0
 ---------------------------------------------------------------------------------
 (2) _OSCILLATOR_Initialize                                0     0      0       0
 ---------------------------------------------------------------------------------
 (2) _EUSART_Initialize                                    0     0      0     294
             _EUSART_SetErrorHandler
      _EUSART_SetFramingErrorHandler
      _EUSART_SetOverrunErrorHandler
 ---------------------------------------------------------------------------------
 (3) _EUSART_SetOverrunErrorHandler                        2     0      2      98
                                              0 COMMON     2     0      2
 ---------------------------------------------------------------------------------
 (3) _EUSART_SetFramingErrorHandler                        2     0      2      98
                                              0 COMMON     2     0      2
 ---------------------------------------------------------------------------------
 (3) _EUSART_SetErrorHandler                               2     0      2      98
                                              0 COMMON     2     0      2
 ---------------------------------------------------------------------------------
 (1) _EUSART_is_rx_ready                                   0     0      0       0
 ---------------------------------------------------------------------------------
 (1) _EUSART_Write                                         1     1      0      15
                                              0 COMMON     1     1      0
 ---------------------------------------------------------------------------------
 (1) _EUSART_Read                                          0     0      0       0
 ---------------------------------------------------------------------------------
 Estimated maximum stack depth 3
 ---------------------------------------------------------------------------------

 Call Graph Graphs:

 _main (ROOT)
   _EUSART_Read
   _EUSART_Write
   _EUSART_is_rx_ready
   _SYSTEM_Initialize
     _EUSART_Initialize
       _EUSART_SetErrorHandler
       _EUSART_SetFramingErrorHandler
       _EUSART_SetOverrunErrorHandler
     _OSCILLATOR_Initialize
     _PIN_MANAGER_Initialize
     _WDT_Initialize

 Address spaces:
Name               Size   Autos  Total    Cost      Usage
BIGRAM             3F0      0       0       0        0.0%
NULL                 0      0       0       0        0.0%
CODE                 0      0       0       0        0.0%
BITCOMMON            E      0       0       1        0.0%
BITSFR0              0      0       0       1        0.0%
SFR0                 0      0       0       1        0.0%
COMMON               E      4       B       2       78.6%
BITSFR1              0      0       0       2        0.0%
SFR1                 0      0       0       2        0.0%
BITSFR2              0      0       0       3        0.0%
SFR2                 0      0       0       3        0.0%
STACK                0      0       0       3        0.0%
BITBANK0            50      0       0       4        0.0%
BITSFR3              0      0       0       4        0.0%
SFR3                 0      0       0       4        0.0%
BANK0               50      0       0       5        0.0%
BITSFR4              0      0       0       5        0.0%
SFR4                 0      0       0       5        0.0%
BITBANK1            50      0       0       6        0.0%
BITSFR5              0      0       0       6        0.0%
SFR5                 0      0       0       6        0.0%
BANK1               50      0       0       7        0.0%
BITSFR6              0      0       0       7        0.0%
SFR6                 0      0       0       7        0.0%
BITBANK2            50      0       0       8        0.0%
BITSFR7              0      0       0       8        0.0%
SFR7                 0      0       0       8        0.0%
BANK2               50      0       0       9        0.0%
BITSFR8              0      0       0       9        0.0%
SFR8                 0      0       0       9        0.0%
BITBANK3            50      0       0      10        0.0%
BITSFR9              0      0       0      10        0.0%
SFR9                 0      0       0      10        0.0%
BANK3               50      0       0      11        0.0%
BITSFR10             0      0       0      11        0.0%
SFR10                0      0       0      11        0.0%
BITBANK4            50      0       0      12        0.0%
BITSFR11             0      0       0      12        0.0%
SFR11                0      0       0      12        0.0%
BANK4               50      0       0      13        0.0%
BITSFR12             0      0       0      13        0.0%
SFR12                0      0       0      13        0.0%
BITBANK5            50      0       0      14        0.0%
BITSFR13             0      0       0      14        0.0%
SFR13                0      0       0      14        0.0%
BANK5               50      0       0      15        0.0%
BITSFR14             0      0       0      15        0.0%
SFR14                0      0       0      15        0.0%
BITBANK6            50      0       0      16        0.0%
BITSFR15             0      0       0      16        0.0%
SFR15                0      0       0      16        0.0%
BANK6               50      0       0      17        0.0%
BITSFR16             0      0       0      17        0.0%
SFR16                0      0       0      17        0.0%
BITBANK7            50      0       0      18        0.0%
BITSFR17             0      0       0      18        0.0%
SFR17                0      0       0      18        0.0%
BANK7               50      0       0      19        0.0%
BITSFR18             0      0       0      19        0.0%
SFR18                0      0       0      19        0.0%
BITSFR19             0      0       0      20        0.0%
SFR19                0      0       0      20        0.0%
ABS                  0      0       B      20        0.0%
BITBANK8            50      0       0      21        0.0%
BITSFR20             0      0       0      21        0.0%
SFR20                0      0       0      21        0.0%
BANK8               50      0       0      22        0.0%
BITSFR21             0      0       0      22        0.0%
SFR21                0      0       0      22        0.0%
BITBANK9            50      0       0      23        0.0%
BITSFR22             0      0       0      23        0.0%
SFR22                0      0       0      23        0.0%
BANK9               50      0       0      24        0.0%
BITSFR23             0      0       0      24        0.0%
SFR23                0      0       0      24        0.0%
BITBANK10           50      0       0      25        0.0%
BITSFR24             0      0       0      25        0.0%
SFR24                0      0       0      25        0.0%
BANK10              50      0       0      26        0.0%
BITSFR25             0      0       0      26        0.0%
SFR25                0      0       0      26        0.0%
BITBANK11           50      0       0      27        0.0%
BITSFR26             0      0       0      27        0.0%
SFR26                0      0       0      27        0.0%
BANK11              50      0       0      28        0.0%
BITSFR27             0      0       0      28        0.0%
SFR27                0      0       0      28        0.0%
BITBANK12           30      0       0      29        0.0%
BITSFR28             0      0       0      29        0.0%
SFR28                0      0       0      29        0.0%
BANK12              30      0       0      30        0.0%
BITSFR29             0      0       0      30        0.0%
SFR29                0      0       0      30        0.0%
BITSFR30             0      0       0      31        0.0%
SFR30                0      0       0      31        0.0%
DATA                 0      0       B      31        0.0%
BITSFR31             0      0       0      32        0.0%
SFR31                0      0       0      32        0.0%


Microchip Technology PIC Macro Assembler V2.32 build 20210201212658 
Symbol Table                                                                                   Sat Jul 20 05:23:05 2024

                                           l51 0754                                             l43 07CA  
                                           l60 0783                                             l70 0775  
                                           l64 0791                                             l82 075E  
                                           l67 076D                                             l85 0763  
                                           l88 0759                                             u10 0788  
                                           u11 0787                                             u20 078E  
                                           u21 078D                                             u30 0772  
                                           u31 0771                                            l139 07FB  
                                          l163 0782                                            l166 076B  
                                          l169 074F                                            l470 0795  
                                          u510 079D                                            u511 079C  
               ?_EUSART_SetFramingErrorHandler 0076                                            wreg 0009  
                                 ?_EUSART_Read 0076                                           l1201 0788  
                                         l1041 07D4                                           l1203 0789  
                                         l1211 076D                                           l1051 07E7  
                                         l1043 07D6                                           l1035 07CB  
                                         l1205 078E                                           l1213 0772  
                                         l1061 07F3                                           l1053 07EA  
                                         l1045 07D9                                           l1037 07CF  
                                         l1207 0790                                           l1071 0768  
                                         l1063 07F5                                           l1055 07EC  
                                         l1047 07DB                                           l1039 07D2  
                                         l1073 0769                                           l1065 07F8  
                                         l1057 07EE                                           l1049 07E1  
                                         l1067 0764                                           l1059 07F1  
                                         l1075 074C                                           l1069 0767  
                                         l1511 0755                                           l1521 07C2  
                                         l1513 07AA                                           l1195 0750  
                                         l1507 075A                                           l1523 07C9  
                                         l1515 07B3                                           l1531 07A3  
                                         l1509 075F                                           l1517 07B4  
                                         l1525 0776                                           l1199 0783  
                                         l1519 07BB                                           l1527 0792  
                                         l1529 079D                                           _LATA 010C  
                                         _LATB 010D                                           _LATC 010E  
                                         _WPUA 020C                                           _WPUB 020D  
                                         _WPUC 020E                                           _main 0792  
                                         btemp 007E                                           start 0002  
                                ?_EUSART_Write 0076                 __size_of_OSCILLATOR_Initialize 0008  
                __end_of_OSCILLATOR_Initialize 076C                                          ?_main 0076  
                                        _TRISA 008C                                          _TRISB 008D  
                                        _TRISC 008E                                          _RXPPS 0E24  
                               _WDT_Initialize 074C                                          wtemp0 007E  
                              __initialization 07FC                                   __end_of_main 07AA  
                               ??_EUSART_Write 0076                                         ??_main 0078  
                       __end_of_WDT_Initialize 0750              _EUSART_DefaultFramingErrorHandler 0000  
                   _EUSART_OverrunErrorHandler 0072                                         _ANSELA 018C  
                                       _ANSELB 018D                                         _ANSELC 018E  
                   __end_of_EUSART_is_rx_ready 0755                                         _BORCON 021D  
                                       _RC1REG 0199                                         _RC1STA 019D  
                                       _RB4PPS 0E9C                                         _ODCONA 028C  
                                       _ODCONB 028D                                         _ODCONC 028E  
                                       _INLVLA 038C                                         _INLVLB 038D  
                                       _INLVLC 038E                                         _OSCCON 0099  
                                       _SPBRGH 019C                                         _SPBRGL 019B  
                                       _TX1REG 019A                                         _WDTCON 0097  
                                       _TX1STA 019E                                ?_WDT_Initialize 0076  
                         __size_of_EUSART_Read 000F                              _SYSTEM_Initialize 0776  
                      __end_of__initialization 07FD                             ?_SYSTEM_Initialize 0076  
                               __pcstackCOMMON 0076                            ??_SYSTEM_Initialize 0078  
                               _OPTION_REGbits 0095                ??_EUSART_SetOverrunErrorHandler 0078  
                    __end_of_SYSTEM_Initialize 0783                           __end_of_EUSART_Write 0776  
                                   __pnvCOMMON 0070                                     __pmaintext 0792  
                                      _OSCSTAT 009A                                        _OSCTUNE 0098  
                                      _SLRCONA 030C                                        _SLRCONB 030D  
                                      _SLRCONC 030E                       ??_EUSART_SetErrorHandler 0078  
                                      __ptext1 0776                                        __ptext2 074C  
                                      __ptext3 07CB                                        __ptext4 0764  
                                      __ptext5 07AA                                        __ptext6 075F  
                                      __ptext7 075A                                        __ptext8 0755  
                                      __ptext9 0750                          _OSCILLATOR_Initialize 0764  
                     ??_PIN_MANAGER_Initialize 0076                     __size_of_SYSTEM_Initialize 000D  
                         end_of_initialization 07FD          __end_of_EUSART_SetOverrunErrorHandler 0764  
       __size_of_EUSART_SetOverrunErrorHandler 0005                  _EUSART_SetOverrunErrorHandler 075F  
                            _EUSART_Initialize 07AA                             ?_EUSART_Initialize 0076  
                           _EUSART_is_rx_ready 0750                            ??_EUSART_Initialize 0078  
                             ??_WDT_Initialize 0076                            ?_EUSART_is_rx_ready 0076  
                        __size_of_EUSART_Write 000A                __size_of_EUSART_SetErrorHandler 0005  
                    __end_of_EUSART_Initialize 07CB                           ??_EUSART_is_rx_ready 0076  
                   _EUSART_DefaultErrorHandler 0000                                   _EUSART_Write 076C  
                       ?_OSCILLATOR_Initialize 0076                            start_initialization 07FC  
              __size_of_PIN_MANAGER_Initialize 0031                                  ??_EUSART_Read 0076  
               ?_EUSART_SetOverrunErrorHandler 0076                     _EUSART_FramingErrorHandler 0074  
                       _EUSART_SetErrorHandler 0755                                    __pbssCOMMON 007A  
                                    ___latbits 0002                     __size_of_EUSART_Initialize 0021  
                          __end_of_EUSART_Read 0792                         _PIN_MANAGER_Initialize 07CB  
                                     _BAUD1CON 019F                                       _LATAbits 010C  
       EUSART_SetErrorHandler@interruptHandler 0076                                       _LATBbits 010D  
                                     _LATCbits 010E                              _eusartRxLastError 007A  
                                     _PIR1bits 0011                ??_EUSART_SetFramingErrorHandler 0078  
            _EUSART_DefaultOverrunErrorHandler 0000                                    _EUSART_Read 0783  
                      ??_OSCILLATOR_Initialize 0076                            _EUSART_ErrorHandler 0070  
                                     __ptext10 076C                                       __ptext11 0783  
                  __size_of_EUSART_is_rx_ready 0005                                  __size_of_main 0018  
                      ?_EUSART_SetErrorHandler 0076                                     _RC1STAbits 019D  
EUSART_SetOverrunErrorHandler@interruptHandler 0076                                       main@data 0079  
        __end_of_EUSART_SetFramingErrorHandler 075F         __size_of_EUSART_SetFramingErrorHandler 0005  
                _EUSART_SetFramingErrorHandler 075A                        __size_of_WDT_Initialize 0004  
                      ?_PIN_MANAGER_Initialize 0076                 __end_of_EUSART_SetErrorHandler 075A  
EUSART_SetFramingErrorHandler@interruptHandler 0076                                     _TX1STAbits 019E  
                           EUSART_Write@txData 0076                 __end_of_PIN_MANAGER_Initialize 07FC  
